

Microchip Technology PIC18 LITE Macro Assembler V1.45 build -152302408 
                                                                                               Mon May 28 15:35:26 2018

Microchip Technology Omniscient Code Generator v1.45 (Free mode) build 201711160504
     1                           	processor	18F45K50
     2                           	fnconf	rparam,??,?,0
     3                           	opt	pw 120
     4                           	opt	lm
     5                           	psect	idataCOMRAM,global,class=CODE,delta=1,noexec
     6                           	psect	mediumconst,global,reloc=2,class=MEDIUMCONST,delta=1,noexec
     7                           	psect	cinit,global,reloc=2,class=CODE,delta=1
     8                           	psect	bssCOMRAM,global,class=COMRAM,space=1,delta=1,noexec
     9                           	psect	dataCOMRAM,global,class=COMRAM,space=1,delta=1,noexec
    10                           	psect	bssBANK0,global,class=BANK0,space=1,delta=1,lowdata,noexec
    11                           	psect	bssBANK1,global,class=BANK1,space=1,delta=1,lowdata,noexec
    12                           	psect	cstackBANK0,global,class=BANK0,space=1,delta=1,noexec
    13                           	psect	cstackCOMRAM,global,class=COMRAM,space=1,delta=1,noexec
    14                           	psect	text0,global,reloc=2,class=CODE,delta=1
    15                           	psect	text1,global,reloc=2,class=CODE,delta=1
    16                           	psect	text2,global,reloc=2,class=CODE,delta=1
    17                           	psect	text3,global,reloc=2,class=CODE,delta=1
    18                           	psect	text4,global,reloc=2,class=CODE,delta=1
    19                           	psect	text5,global,reloc=2,class=CODE,delta=1
    20                           	psect	text6,global,reloc=2,class=CODE,delta=1
    21                           	psect	text7,global,reloc=2,class=CODE,delta=1
    22                           	psect	text8,global,reloc=2,class=CODE,delta=1,group=1
    23                           	psect	text9,global,reloc=2,class=CODE,delta=1
    24                           	psect	text10,global,reloc=2,class=CODE,delta=1
    25                           	psect	text11,global,reloc=2,class=CODE,delta=1
    26                           	psect	text12,global,reloc=2,class=CODE,delta=1
    27                           	psect	text13,global,reloc=2,class=CODE,delta=1
    28                           	psect	text14,global,reloc=2,class=CODE,delta=1,group=1
    29                           	psect	text15,global,reloc=2,class=CODE,delta=1
    30                           	psect	text16,global,reloc=2,class=CODE,delta=1
    31                           	psect	text17,global,reloc=2,class=CODE,delta=1
    32                           	psect	text18,global,reloc=2,class=CODE,delta=1
    33                           	psect	text19,global,reloc=2,class=CODE,delta=1
    34                           	psect	text20,global,reloc=2,class=CODE,delta=1
    35                           	psect	text21,global,reloc=2,class=CODE,delta=1
    36                           	psect	text22,global,reloc=2,class=CODE,delta=1
    37                           	psect	text23,global,reloc=2,class=CODE,delta=1
    38                           	psect	text24,global,reloc=2,class=CODE,delta=1
    39                           	psect	text25,global,reloc=2,class=CODE,delta=1
    40                           	psect	text26,global,reloc=2,class=CODE,delta=1
    41                           	psect	text27,global,reloc=2,class=CODE,delta=1
    42                           	psect	text28,global,reloc=2,class=CODE,delta=1
    43                           	psect	text29,global,reloc=2,class=CODE,delta=1
    44                           	psect	text30,global,reloc=2,class=CODE,delta=1
    45                           	psect	text31,global,reloc=2,class=CODE,delta=1
    46                           	psect	text32,global,reloc=2,class=CODE,delta=1
    47                           	psect	text33,global,reloc=2,class=CODE,delta=1
    48                           	psect	text34,global,reloc=2,class=CODE,delta=1
    49                           	psect	text35,global,reloc=2,class=CODE,delta=1
    50                           	psect	text36,global,reloc=2,class=CODE,delta=1
    51                           	psect	text37,global,reloc=2,class=CODE,delta=1
    52                           	psect	text38,global,reloc=2,class=CODE,delta=1
    53                           	psect	text39,global,reloc=2,class=CODE,delta=1
    54                           	psect	text40,global,reloc=2,class=CODE,delta=1
    55                           	psect	text41,global,reloc=2,class=CODE,delta=1
    56                           	psect	intcode,global,reloc=2,class=CODE,delta=1
    57                           	psect	intsave_regs,global,class=BIGRAM,space=1,delta=1,noexec
    58                           	psect	rparam,global,class=COMRAM,space=1,delta=1,noexec
    59                           	psect	temp,global,ovrld,common,class=COMRAM,space=1,delta=1
    60                           	dabs	1,0x400,32,_BDT
    61                           	dabs	1,0x500,12,_joystick_input
    62                           	dabs	1,0x428,8,_CtrlTrfData
    63                           	dabs	1,0x420,8,_SetupPkt
    64  0000                     
    65                           ; Version 1.45
    66                           ; Generated 16/11/2017 GMT
    67                           ; 
    68                           ; Copyright © 2017, Microchip Technology Inc. and its subsidiaries ("Microchip")
    69                           ; All rights reserved.
    70                           ; 
    71                           ; This software is developed by Microchip Technology Inc. and its subsidiaries ("Microch
      +                          ip").
    72                           ; 
    73                           ; Redistribution and use in source and binary forms, with or without modification, are
    74                           ; permitted provided that the following conditions are met:
    75                           ; 
    76                           ;     1. Redistributions of source code must retain the above copyright notice, this lis
      +                          t of
    77                           ;        conditions and the following disclaimer.
    78                           ; 
    79                           ;     2. Redistributions in binary form must reproduce the above copyright notice, this 
      +                          list
    80                           ;        of conditions and the following disclaimer in the documentation and/or other
    81                           ;        materials provided with the distribution.
    82                           ; 
    83                           ;     3. Microchip's name may not be used to endorse or promote products derived from th
      +                          is
    84                           ;        software without specific prior written permission.
    85                           ; 
    86                           ; THIS SOFTWARE IS PROVIDED BY MICROCHIP "AS IS" AND ANY EXPRESS OR IMPLIED WARRANTIES,
    87                           ; INCLUDING, BUT NOT LIMITED TO, THE IMPLIED WARRANTIES OF MERCHANTABILITY AND FITNESS F
      +                          OR
    88                           ; PURPOSE ARE DISCLAIMED.  IN NO EVENT SHALL MICROCHIP BE LIABLE FOR ANY DIRECT, INDIREC
      +                          T,
    89                           ; INCIDENTAL, SPECIAL, EXEMPLARY, OR CONSEQUENTIAL DAMAGES (INCLUDING BUT NOT LIMITED TO
    90                           ; PROCUREMENT OF SUBSTITUTE GOODS OR SERVICES; LOSS OF USE, DATA OR PROFITS; OR BUSINESS
    91                           ; INTERRUPTION) HOWSOEVER CAUSED AND ON ANY THEORY OF LIABILITY, WHETHER IN CONTRACT, ST
      +                          RICT
    92                           ; LIABILITY, OR TORT (INCLUDING NEGLIGENCE OR OTHERWISE) ARISING IN ANY WAY OUT OF THE U
      +                          SE OF
    93                           ; THIS SOFTWARE, EVEN IF ADVISED OF THE POSSIBILITY OF SUCH DAMAGE.
    94                           ; 
    95                           ; 
    96                           ; Code-generator required, PIC18F45K50 Definitions
    97                           ; 
    98                           ; SFR Addresses
    99  0000                     
   100                           	psect	idataCOMRAM
   101  001C8E                     __pidataCOMRAM:
   102                           	opt stack 0
   103                           
   104                           ;initializer for WHEEL_Test@direction
   105  001C8E  01                 	db	1
   106                           
   107                           	psect	mediumconst
   108  007A60                     __pmediumconst:
   109                           	opt stack 0
   110  007A60  00                 	db	0
   111  007A61                     _USB_SD_Ptr:
   112                           	opt stack 0
   113  007A61  FA                 	db	low _sd000
   114  007A62  7F                 	db	high _sd000
   115  007A63  6F                 	db	low _sd001
   116  007A64  7F                 	db	high _sd001
   117  007A65  CC                 	db	low _sd002
   118  007A66  7F                 	db	high _sd002
   119  007A67                     __end_of_USB_SD_Ptr:
   120                           	opt stack 0
   121  007A67                     _USB_CD_Ptr:
   122                           	opt stack 0
   123  007A67  A3                 	db	low _configDescriptor1
   124  007A68  7F                 	db	high _configDescriptor1
   125  007A69                     __end_of_USB_CD_Ptr:
   126                           	opt stack 0
   127  007A69                     _hid_rpt01:
   128                           	opt stack 0
   129  007A69  05                 	db	5
   130  007A6A  01                 	db	1
   131  007A6B  09                 	db	9
   132  007A6C  04                 	db	4
   133  007A6D  A1                 	db	161
   134  007A6E  01                 	db	1
   135  007A6F  85                 	db	133
   136  007A70  01                 	db	1
   137  007A71  15                 	db	21
   138  007A72  00                 	db	0
   139  007A73  35                 	db	53
   140  007A74  00                 	db	0
   141  007A75  25                 	db	37
   142  007A76  01                 	db	1
   143  007A77  45                 	db	69
   144  007A78  01                 	db	1
   145  007A79  75                 	db	117
   146  007A7A  01                 	db	1
   147  007A7B  95                 	db	149
   148  007A7C  0D                 	db	13
   149  007A7D  05                 	db	5
   150  007A7E  09                 	db	9
   151  007A7F  19                 	db	25
   152  007A80  01                 	db	1
   153  007A81  29                 	db	41
   154  007A82  0D                 	db	13
   155  007A83  81                 	db	129
   156  007A84  02                 	db	2
   157  007A85  95                 	db	149
   158  007A86  03                 	db	3
   159  007A87  81                 	db	129
   160  007A88  01                 	db	1
   161  007A89  05                 	db	5
   162  007A8A  01                 	db	1
   163  007A8B  25                 	db	37
   164  007A8C  07                 	db	7
   165  007A8D  46                 	db	70
   166  007A8E  3B                 	db	59
   167  007A8F  01                 	db	1
   168  007A90  75                 	db	117
   169  007A91  04                 	db	4
   170  007A92  95                 	db	149
   171  007A93  01                 	db	1
   172  007A94  65                 	db	101
   173  007A95  14                 	db	20
   174  007A96  09                 	db	9
   175  007A97  39                 	db	57
   176  007A98  81                 	db	129
   177  007A99  42                 	db	66
   178  007A9A  65                 	db	101
   179  007A9B  00                 	db	0
   180  007A9C  95                 	db	149
   181  007A9D  01                 	db	1
   182  007A9E  81                 	db	129
   183  007A9F  01                 	db	1
   184  007AA0  26                 	db	38
   185  007AA1  FF                 	db	255
   186  007AA2  03                 	db	3
   187  007AA3  46                 	db	70
   188  007AA4  FF                 	db	255
   189  007AA5  03                 	db	3
   190  007AA6  09                 	db	9
   191  007AA7  30                 	db	48
   192  007AA8  75                 	db	117
   193  007AA9  0A                 	db	10
   194  007AAA  95                 	db	149
   195  007AAB  01                 	db	1
   196  007AAC  81                 	db	129
   197  007AAD  02                 	db	2
   198  007AAE  95                 	db	149
   199  007AAF  01                 	db	1
   200  007AB0  81                 	db	129
   201  007AB1  01                 	db	1
   202  007AB2  26                 	db	38
   203  007AB3  FF                 	db	255
   204  007AB4  FF                 	db	255
   205  007AB5  46                 	db	70
   206  007AB6  FF                 	db	255
   207  007AB7  03                 	db	3
   208  007AB8  09                 	db	9
   209  007AB9  31                 	db	49
   210  007ABA  09                 	db	9
   211  007ABB  32                 	db	50
   212  007ABC  09                 	db	9
   213  007ABD  35                 	db	53
   214  007ABE  75                 	db	117
   215  007ABF  0A                 	db	10
   216  007AC0  95                 	db	149
   217  007AC1  03                 	db	3
   218  007AC2  81                 	db	129
   219  007AC3  02                 	db	2
   220  007AC4  05                 	db	5
   221  007AC5  0F                 	db	15
   222  007AC6  09                 	db	9
   223  007AC7  92                 	db	146
   224  007AC8  A1                 	db	161
   225  007AC9  02                 	db	2
   226  007ACA  85                 	db	133
   227  007ACB  02                 	db	2
   228  007ACC  09                 	db	9
   229  007ACD  9F                 	db	159
   230  007ACE  09                 	db	9
   231  007ACF  A0                 	db	160
   232  007AD0  09                 	db	9
   233  007AD1  A4                 	db	164
   234  007AD2  09                 	db	9
   235  007AD3  A5                 	db	165
   236  007AD4  09                 	db	9
   237  007AD5  A6                 	db	166
   238  007AD6  15                 	db	21
   239  007AD7  00                 	db	0
   240  007AD8  25                 	db	37
   241  007AD9  01                 	db	1
   242  007ADA  35                 	db	53
   243  007ADB  00                 	db	0
   244  007ADC  45                 	db	69
   245  007ADD  01                 	db	1
   246  007ADE  75                 	db	117
   247  007ADF  01                 	db	1
   248  007AE0  95                 	db	149
   249  007AE1  05                 	db	5
   250  007AE2  81                 	db	129
   251  007AE3  02                 	db	2
   252  007AE4  95                 	db	149
   253  007AE5  03                 	db	3
   254  007AE6  81                 	db	129
   255  007AE7  03                 	db	3
   256  007AE8  09                 	db	9
   257  007AE9  94                 	db	148
   258  007AEA  15                 	db	21
   259  007AEB  00                 	db	0
   260  007AEC  25                 	db	37
   261  007AED  01                 	db	1
   262  007AEE  35                 	db	53
   263  007AEF  00                 	db	0
   264  007AF0  45                 	db	69
   265  007AF1  01                 	db	1
   266  007AF2  75                 	db	117
   267  007AF3  01                 	db	1
   268  007AF4  95                 	db	149
   269  007AF5  01                 	db	1
   270  007AF6  81                 	db	129
   271  007AF7  02                 	db	2
   272  007AF8  09                 	db	9
   273  007AF9  22                 	db	34
   274  007AFA  15                 	db	21
   275  007AFB  01                 	db	1
   276  007AFC  25                 	db	37
   277  007AFD  28                 	db	40
   278  007AFE  35                 	db	53
   279  007AFF  01                 	db	1
   280  007B00  45                 	db	69
   281  007B01  28                 	db	40
   282  007B02  75                 	db	117
   283  007B03  07                 	db	7
   284  007B04  95                 	db	149
   285  007B05  01                 	db	1
   286  007B06  81                 	db	129
   287  007B07  02                 	db	2
   288  007B08  C0                 	db	192
   289  007B09  09                 	db	9
   290  007B0A  21                 	db	33
   291  007B0B  A1                 	db	161
   292  007B0C  02                 	db	2
   293  007B0D  85                 	db	133
   294  007B0E  01                 	db	1
   295  007B0F  09                 	db	9
   296  007B10  22                 	db	34
   297  007B11  15                 	db	21
   298  007B12  01                 	db	1
   299  007B13  25                 	db	37
   300  007B14  28                 	db	40
   301  007B15  35                 	db	53
   302  007B16  01                 	db	1
   303  007B17  45                 	db	69
   304  007B18  28                 	db	40
   305  007B19  75                 	db	117
   306  007B1A  08                 	db	8
   307  007B1B  95                 	db	149
   308  007B1C  01                 	db	1
   309  007B1D  91                 	db	145
   310  007B1E  02                 	db	2
   311  007B1F  09                 	db	9
   312  007B20  25                 	db	37
   313  007B21  A1                 	db	161
   314  007B22  02                 	db	2
   315  007B23  09                 	db	9
   316  007B24  26                 	db	38
   317  007B25  09                 	db	9
   318  007B26  27                 	db	39
   319  007B27  09                 	db	9
   320  007B28  30                 	db	48
   321  007B29  09                 	db	9
   322  007B2A  31                 	db	49
   323  007B2B  09                 	db	9
   324  007B2C  32                 	db	50
   325  007B2D  09                 	db	9
   326  007B2E  33                 	db	51
   327  007B2F  09                 	db	9
   328  007B30  34                 	db	52
   329  007B31  09                 	db	9
   330  007B32  40                 	db	64
   331  007B33  09                 	db	9
   332  007B34  41                 	db	65
   333  007B35  09                 	db	9
   334  007B36  42                 	db	66
   335  007B37  09                 	db	9
   336  007B38  43                 	db	67
   337  007B39  09                 	db	9
   338  007B3A  28                 	db	40
   339  007B3B  25                 	db	37
   340  007B3C  0C                 	db	12
   341  007B3D  15                 	db	21
   342  007B3E  01                 	db	1
   343  007B3F  35                 	db	53
   344  007B40  01                 	db	1
   345  007B41  45                 	db	69
   346  007B42  0C                 	db	12
   347  007B43  75                 	db	117
   348  007B44  08                 	db	8
   349  007B45  95                 	db	149
   350  007B46  01                 	db	1
   351  007B47  91                 	db	145
   352  007B48  00                 	db	0
   353  007B49  C0                 	db	192
   354  007B4A  09                 	db	9
   355  007B4B  50                 	db	80
   356  007B4C  09                 	db	9
   357  007B4D  54                 	db	84
   358  007B4E  09                 	db	9
   359  007B4F  51                 	db	81
   360  007B50  15                 	db	21
   361  007B51  00                 	db	0
   362  007B52  26                 	db	38
   363  007B53  FF                 	db	255
   364  007B54  7F                 	db	127
   365  007B55  35                 	db	53
   366  007B56  00                 	db	0
   367  007B57  46                 	db	70
   368  007B58  FF                 	db	255
   369  007B59  7F                 	db	127
   370  007B5A  66                 	db	102
   371  007B5B  03                 	db	3
   372  007B5C  10                 	db	16
   373  007B5D  55                 	db	85
   374  007B5E  FD                 	db	253
   375  007B5F  75                 	db	117
   376  007B60  10                 	db	16
   377  007B61  95                 	db	149
   378  007B62  03                 	db	3
   379  007B63  91                 	db	145
   380  007B64  02                 	db	2
   381  007B65  55                 	db	85
   382  007B66  00                 	db	0
   383  007B67  66                 	db	102
   384  007B68  00                 	db	0
   385  007B69  00                 	db	0
   386  007B6A  09                 	db	9
   387  007B6B  52                 	db	82
   388  007B6C  15                 	db	21
   389  007B6D  00                 	db	0
   390  007B6E  26                 	db	38
   391  007B6F  FF                 	db	255
   392  007B70  00                 	db	0
   393  007B71  35                 	db	53
   394  007B72  00                 	db	0
   395  007B73  46                 	db	70
   396  007B74  10                 	db	16
   397  007B75  27                 	db	39
   398  007B76  75                 	db	117
   399  007B77  08                 	db	8
   400  007B78  95                 	db	149
   401  007B79  01                 	db	1
   402  007B7A  91                 	db	145
   403  007B7B  02                 	db	2
   404  007B7C  09                 	db	9
   405  007B7D  53                 	db	83
   406  007B7E  15                 	db	21
   407  007B7F  01                 	db	1
   408  007B80  25                 	db	37
   409  007B81  08                 	db	8
   410  007B82  35                 	db	53
   411  007B83  01                 	db	1
   412  007B84  45                 	db	69
   413  007B85  08                 	db	8
   414  007B86  75                 	db	117
   415  007B87  08                 	db	8
   416  007B88  95                 	db	149
   417  007B89  01                 	db	1
   418  007B8A  91                 	db	145
   419  007B8B  02                 	db	2
   420  007B8C  09                 	db	9
   421  007B8D  55                 	db	85
   422  007B8E  A1                 	db	161
   423  007B8F  02                 	db	2
   424  007B90  05                 	db	5
   425  007B91  01                 	db	1
   426  007B92  09                 	db	9
   427  007B93  30                 	db	48
   428  007B94  09                 	db	9
   429  007B95  31                 	db	49
   430  007B96  15                 	db	21
   431  007B97  00                 	db	0
   432  007B98  25                 	db	37
   433  007B99  01                 	db	1
   434  007B9A  75                 	db	117
   435  007B9B  01                 	db	1
   436  007B9C  95                 	db	149
   437  007B9D  02                 	db	2
   438  007B9E  91                 	db	145
   439  007B9F  02                 	db	2
   440  007BA0  C0                 	db	192
   441  007BA1  05                 	db	5
   442  007BA2  0F                 	db	15
   443  007BA3  09                 	db	9
   444  007BA4  56                 	db	86
   445  007BA5  95                 	db	149
   446  007BA6  01                 	db	1
   447  007BA7  91                 	db	145
   448  007BA8  02                 	db	2
   449  007BA9  95                 	db	149
   450  007BAA  05                 	db	5
   451  007BAB  91                 	db	145
   452  007BAC  03                 	db	3
   453  007BAD  09                 	db	9
   454  007BAE  57                 	db	87
   455  007BAF  A1                 	db	161
   456  007BB0  02                 	db	2
   457  007BB1  0B                 	db	11
   458  007BB2  01                 	db	1
   459  007BB3  00                 	db	0
   460  007BB4  0A                 	db	10
   461  007BB5  00                 	db	0
   462  007BB6  0B                 	db	11
   463  007BB7  02                 	db	2
   464  007BB8  00                 	db	0
   465  007BB9  0A                 	db	10
   466  007BBA  00                 	db	0
   467  007BBB  66                 	db	102
   468  007BBC  14                 	db	20
   469  007BBD  00                 	db	0
   470  007BBE  55                 	db	85
   471  007BBF  FE                 	db	254
   472  007BC0  15                 	db	21
   473  007BC1  00                 	db	0
   474  007BC2  26                 	db	38
   475  007BC3  FF                 	db	255
   476  007BC4  00                 	db	0
   477  007BC5  35                 	db	53
   478  007BC6  00                 	db	0
   479  007BC7  47                 	db	71
   480  007BC8  A0                 	db	160
   481  007BC9  8C                 	db	140
   482  007BCA  00                 	db	0
   483  007BCB  00                 	db	0
   484  007BCC  66                 	db	102
   485  007BCD  00                 	db	0
   486  007BCE  00                 	db	0
   487  007BCF  75                 	db	117
   488  007BD0  08                 	db	8
   489  007BD1  95                 	db	149
   490  007BD2  02                 	db	2
   491  007BD3  91                 	db	145
   492  007BD4  02                 	db	2
   493  007BD5  55                 	db	85
   494  007BD6  00                 	db	0
   495  007BD7  66                 	db	102
   496  007BD8  00                 	db	0
   497  007BD9  00                 	db	0
   498  007BDA  C0                 	db	192
   499  007BDB  05                 	db	5
   500  007BDC  0F                 	db	15
   501  007BDD  09                 	db	9
   502  007BDE  A7                 	db	167
   503  007BDF  66                 	db	102
   504  007BE0  03                 	db	3
   505  007BE1  10                 	db	16
   506  007BE2  55                 	db	85
   507  007BE3  FD                 	db	253
   508  007BE4  15                 	db	21
   509  007BE5  00                 	db	0
   510  007BE6  26                 	db	38
   511  007BE7  FF                 	db	255
   512  007BE8  7F                 	db	127
   513  007BE9  35                 	db	53
   514  007BEA  00                 	db	0
   515  007BEB  46                 	db	70
   516  007BEC  FF                 	db	255
   517  007BED  7F                 	db	127
   518  007BEE  75                 	db	117
   519  007BEF  10                 	db	16
   520  007BF0  95                 	db	149
   521  007BF1  01                 	db	1
   522  007BF2  91                 	db	145
   523  007BF3  02                 	db	2
   524  007BF4  66                 	db	102
   525  007BF5  00                 	db	0
   526  007BF6  00                 	db	0
   527  007BF7  55                 	db	85
   528  007BF8  00                 	db	0
   529  007BF9  C0                 	db	192
   530  007BFA  05                 	db	5
   531  007BFB  0F                 	db	15
   532  007BFC  09                 	db	9
   533  007BFD  5A                 	db	90
   534  007BFE  A1                 	db	161
   535  007BFF  02                 	db	2
   536  007C00  85                 	db	133
   537  007C01  02                 	db	2
   538  007C02  09                 	db	9
   539  007C03  22                 	db	34
   540  007C04  15                 	db	21
   541  007C05  01                 	db	1
   542  007C06  25                 	db	37
   543  007C07  28                 	db	40
   544  007C08  35                 	db	53
   545  007C09  01                 	db	1
   546  007C0A  45                 	db	69
   547  007C0B  28                 	db	40
   548  007C0C  75                 	db	117
   549  007C0D  08                 	db	8
   550  007C0E  95                 	db	149
   551  007C0F  01                 	db	1
   552  007C10  91                 	db	145
   553  007C11  02                 	db	2
   554  007C12  09                 	db	9
   555  007C13  5B                 	db	91
   556  007C14  09                 	db	9
   557  007C15  5D                 	db	93
   558  007C16  15                 	db	21
   559  007C17  00                 	db	0
   560  007C18  26                 	db	38
   561  007C19  FF                 	db	255
   562  007C1A  00                 	db	0
   563  007C1B  35                 	db	53
   564  007C1C  00                 	db	0
   565  007C1D  46                 	db	70
   566  007C1E  10                 	db	16
   567  007C1F  27                 	db	39
   568  007C20  95                 	db	149
   569  007C21  02                 	db	2
   570  007C22  91                 	db	145
   571  007C23  02                 	db	2
   572  007C24  09                 	db	9
   573  007C25  5C                 	db	92
   574  007C26  09                 	db	9
   575  007C27  5E                 	db	94
   576  007C28  66                 	db	102
   577  007C29  03                 	db	3
   578  007C2A  10                 	db	16
   579  007C2B  55                 	db	85
   580  007C2C  FD                 	db	253
   581  007C2D  26                 	db	38
   582  007C2E  FF                 	db	255
   583  007C2F  7F                 	db	127
   584  007C30  46                 	db	70
   585  007C31  FF                 	db	255
   586  007C32  7F                 	db	127
   587  007C33  75                 	db	117
   588  007C34  10                 	db	16
   589  007C35  91                 	db	145
   590  007C36  02                 	db	2
   591  007C37  45                 	db	69
   592  007C38  00                 	db	0
   593  007C39  66                 	db	102
   594  007C3A  00                 	db	0
   595  007C3B  00                 	db	0
   596  007C3C  55                 	db	85
   597  007C3D  00                 	db	0
   598  007C3E  C0                 	db	192
   599  007C3F  09                 	db	9
   600  007C40  5F                 	db	95
   601  007C41  A1                 	db	161
   602  007C42  02                 	db	2
   603  007C43  85                 	db	133
   604  007C44  03                 	db	3
   605  007C45  09                 	db	9
   606  007C46  22                 	db	34
   607  007C47  15                 	db	21
   608  007C48  01                 	db	1
   609  007C49  25                 	db	37
   610  007C4A  28                 	db	40
   611  007C4B  35                 	db	53
   612  007C4C  01                 	db	1
   613  007C4D  45                 	db	69
   614  007C4E  28                 	db	40
   615  007C4F  75                 	db	117
   616  007C50  08                 	db	8
   617  007C51  95                 	db	149
   618  007C52  01                 	db	1
   619  007C53  91                 	db	145
   620  007C54  02                 	db	2
   621  007C55  09                 	db	9
   622  007C56  23                 	db	35
   623  007C57  15                 	db	21
   624  007C58  00                 	db	0
   625  007C59  25                 	db	37
   626  007C5A  01                 	db	1
   627  007C5B  35                 	db	53
   628  007C5C  00                 	db	0
   629  007C5D  45                 	db	69
   630  007C5E  01                 	db	1
   631  007C5F  75                 	db	117
   632  007C60  04                 	db	4
   633  007C61  95                 	db	149
   634  007C62  01                 	db	1
   635  007C63  91                 	db	145
   636  007C64  02                 	db	2
   637  007C65  09                 	db	9
   638  007C66  58                 	db	88
   639  007C67  A1                 	db	161
   640  007C68  02                 	db	2
   641  007C69  0B                 	db	11
   642  007C6A  01                 	db	1
   643  007C6B  00                 	db	0
   644  007C6C  0A                 	db	10
   645  007C6D  00                 	db	0
   646  007C6E  0B                 	db	11
   647  007C6F  02                 	db	2
   648  007C70  00                 	db	0
   649  007C71  0A                 	db	10
   650  007C72  00                 	db	0
   651  007C73  75                 	db	117
   652  007C74  02                 	db	2
   653  007C75  95                 	db	149
   654  007C76  02                 	db	2
   655  007C77  91                 	db	145
   656  007C78  02                 	db	2
   657  007C79  C0                 	db	192
   658  007C7A  15                 	db	21
   659  007C7B  80                 	db	128
   660  007C7C  25                 	db	37
   661  007C7D  7F                 	db	127
   662  007C7E  36                 	db	54
   663  007C7F  F0                 	db	240
   664  007C80  D8                 	db	216
   665  007C81  46                 	db	70
   666  007C82  10                 	db	16
   667  007C83  27                 	db	39
   668  007C84  09                 	db	9
   669  007C85  60                 	db	96
   670  007C86  75                 	db	117
   671  007C87  08                 	db	8
   672  007C88  95                 	db	149
   673  007C89  01                 	db	1
   674  007C8A  91                 	db	145
   675  007C8B  02                 	db	2
   676  007C8C  36                 	db	54
   677  007C8D  F0                 	db	240
   678  007C8E  D8                 	db	216
   679  007C8F  46                 	db	70
   680  007C90  10                 	db	16
   681  007C91  27                 	db	39
   682  007C92  09                 	db	9
   683  007C93  61                 	db	97
   684  007C94  09                 	db	9
   685  007C95  62                 	db	98
   686  007C96  95                 	db	149
   687  007C97  02                 	db	2
   688  007C98  91                 	db	145
   689  007C99  02                 	db	2
   690  007C9A  15                 	db	21
   691  007C9B  00                 	db	0
   692  007C9C  26                 	db	38
   693  007C9D  FF                 	db	255
   694  007C9E  00                 	db	0
   695  007C9F  35                 	db	53
   696  007CA0  00                 	db	0
   697  007CA1  46                 	db	70
   698  007CA2  10                 	db	16
   699  007CA3  27                 	db	39
   700  007CA4  09                 	db	9
   701  007CA5  63                 	db	99
   702  007CA6  09                 	db	9
   703  007CA7  64                 	db	100
   704  007CA8  75                 	db	117
   705  007CA9  08                 	db	8
   706  007CAA  95                 	db	149
   707  007CAB  02                 	db	2
   708  007CAC  91                 	db	145
   709  007CAD  02                 	db	2
   710  007CAE  09                 	db	9
   711  007CAF  65                 	db	101
   712  007CB0  46                 	db	70
   713  007CB1  10                 	db	16
   714  007CB2  27                 	db	39
   715  007CB3  95                 	db	149
   716  007CB4  01                 	db	1
   717  007CB5  91                 	db	145
   718  007CB6  02                 	db	2
   719  007CB7  C0                 	db	192
   720  007CB8  09                 	db	9
   721  007CB9  6E                 	db	110
   722  007CBA  A1                 	db	161
   723  007CBB  02                 	db	2
   724  007CBC  85                 	db	133
   725  007CBD  04                 	db	4
   726  007CBE  09                 	db	9
   727  007CBF  22                 	db	34
   728  007CC0  15                 	db	21
   729  007CC1  01                 	db	1
   730  007CC2  25                 	db	37
   731  007CC3  28                 	db	40
   732  007CC4  35                 	db	53
   733  007CC5  01                 	db	1
   734  007CC6  45                 	db	69
   735  007CC7  28                 	db	40
   736  007CC8  75                 	db	117
   737  007CC9  08                 	db	8
   738  007CCA  95                 	db	149
   739  007CCB  01                 	db	1
   740  007CCC  91                 	db	145
   741  007CCD  02                 	db	2
   742  007CCE  09                 	db	9
   743  007CCF  70                 	db	112
   744  007CD0  15                 	db	21
   745  007CD1  00                 	db	0
   746  007CD2  26                 	db	38
   747  007CD3  FF                 	db	255
   748  007CD4  00                 	db	0
   749  007CD5  35                 	db	53
   750  007CD6  00                 	db	0
   751  007CD7  46                 	db	70
   752  007CD8  10                 	db	16
   753  007CD9  27                 	db	39
   754  007CDA  75                 	db	117
   755  007CDB  08                 	db	8
   756  007CDC  95                 	db	149
   757  007CDD  01                 	db	1
   758  007CDE  91                 	db	145
   759  007CDF  02                 	db	2
   760  007CE0  09                 	db	9
   761  007CE1  6F                 	db	111
   762  007CE2  15                 	db	21
   763  007CE3  80                 	db	128
   764  007CE4  25                 	db	37
   765  007CE5  7F                 	db	127
   766  007CE6  36                 	db	54
   767  007CE7  F0                 	db	240
   768  007CE8  D8                 	db	216
   769  007CE9  46                 	db	70
   770  007CEA  10                 	db	16
   771  007CEB  27                 	db	39
   772  007CEC  95                 	db	149
   773  007CED  01                 	db	1
   774  007CEE  91                 	db	145
   775  007CEF  02                 	db	2
   776  007CF0  09                 	db	9
   777  007CF1  71                 	db	113
   778  007CF2  66                 	db	102
   779  007CF3  14                 	db	20
   780  007CF4  00                 	db	0
   781  007CF5  55                 	db	85
   782  007CF6  FE                 	db	254
   783  007CF7  15                 	db	21
   784  007CF8  00                 	db	0
   785  007CF9  26                 	db	38
   786  007CFA  FF                 	db	255
   787  007CFB  00                 	db	0
   788  007CFC  35                 	db	53
   789  007CFD  00                 	db	0
   790  007CFE  47                 	db	71
   791  007CFF  A0                 	db	160
   792  007D00  8C                 	db	140
   793  007D01  00                 	db	0
   794  007D02  00                 	db	0
   795  007D03  91                 	db	145
   796  007D04  02                 	db	2
   797  007D05  09                 	db	9
   798  007D06  72                 	db	114
   799  007D07  26                 	db	38
   800  007D08  FF                 	db	255
   801  007D09  7F                 	db	127
   802  007D0A  46                 	db	70
   803  007D0B  FF                 	db	255
   804  007D0C  7F                 	db	127
   805  007D0D  66                 	db	102
   806  007D0E  03                 	db	3
   807  007D0F  10                 	db	16
   808  007D10  55                 	db	85
   809  007D11  FD                 	db	253
   810  007D12  75                 	db	117
   811  007D13  10                 	db	16
   812  007D14  95                 	db	149
   813  007D15  01                 	db	1
   814  007D16  91                 	db	145
   815  007D17  02                 	db	2
   816  007D18  66                 	db	102
   817  007D19  00                 	db	0
   818  007D1A  00                 	db	0
   819  007D1B  55                 	db	85
   820  007D1C  00                 	db	0
   821  007D1D  C0                 	db	192
   822  007D1E  09                 	db	9
   823  007D1F  73                 	db	115
   824  007D20  A1                 	db	161
   825  007D21  02                 	db	2
   826  007D22  85                 	db	133
   827  007D23  05                 	db	5
   828  007D24  09                 	db	9
   829  007D25  22                 	db	34
   830  007D26  15                 	db	21
   831  007D27  01                 	db	1
   832  007D28  25                 	db	37
   833  007D29  28                 	db	40
   834  007D2A  35                 	db	53
   835  007D2B  01                 	db	1
   836  007D2C  45                 	db	69
   837  007D2D  28                 	db	40
   838  007D2E  75                 	db	117
   839  007D2F  08                 	db	8
   840  007D30  95                 	db	149
   841  007D31  01                 	db	1
   842  007D32  91                 	db	145
   843  007D33  02                 	db	2
   844  007D34  09                 	db	9
   845  007D35  70                 	db	112
   846  007D36  16                 	db	22
   847  007D37  01                 	db	1
   848  007D38  FF                 	db	255
   849  007D39  26                 	db	38
   850  007D3A  FF                 	db	255
   851  007D3B  00                 	db	0
   852  007D3C  36                 	db	54
   853  007D3D  F0                 	db	240
   854  007D3E  D8                 	db	216
   855  007D3F  46                 	db	70
   856  007D40  10                 	db	16
   857  007D41  27                 	db	39
   858  007D42  75                 	db	117
   859  007D43  10                 	db	16
   860  007D44  95                 	db	149
   861  007D45  01                 	db	1
   862  007D46  91                 	db	145
   863  007D47  02                 	db	2
   864  007D48  C0                 	db	192
   865  007D49  09                 	db	9
   866  007D4A  74                 	db	116
   867  007D4B  A1                 	db	161
   868  007D4C  02                 	db	2
   869  007D4D  85                 	db	133
   870  007D4E  06                 	db	6
   871  007D4F  09                 	db	9
   872  007D50  22                 	db	34
   873  007D51  15                 	db	21
   874  007D52  01                 	db	1
   875  007D53  25                 	db	37
   876  007D54  28                 	db	40
   877  007D55  35                 	db	53
   878  007D56  01                 	db	1
   879  007D57  45                 	db	69
   880  007D58  28                 	db	40
   881  007D59  75                 	db	117
   882  007D5A  08                 	db	8
   883  007D5B  95                 	db	149
   884  007D5C  01                 	db	1
   885  007D5D  91                 	db	145
   886  007D5E  02                 	db	2
   887  007D5F  09                 	db	9
   888  007D60  75                 	db	117
   889  007D61  09                 	db	9
   890  007D62  76                 	db	118
   891  007D63  15                 	db	21
   892  007D64  80                 	db	128
   893  007D65  25                 	db	37
   894  007D66  7F                 	db	127
   895  007D67  36                 	db	54
   896  007D68  F0                 	db	240
   897  007D69  D8                 	db	216
   898  007D6A  46                 	db	70
   899  007D6B  10                 	db	16
   900  007D6C  27                 	db	39
   901  007D6D  75                 	db	117
   902  007D6E  08                 	db	8
   903  007D6F  95                 	db	149
   904  007D70  02                 	db	2
   905  007D71  91                 	db	145
   906  007D72  02                 	db	2
   907  007D73  C0                 	db	192
   908  007D74  09                 	db	9
   909  007D75  68                 	db	104
   910  007D76  A1                 	db	161
   911  007D77  02                 	db	2
   912  007D78  85                 	db	133
   913  007D79  07                 	db	7
   914  007D7A  09                 	db	9
   915  007D7B  22                 	db	34
   916  007D7C  15                 	db	21
   917  007D7D  01                 	db	1
   918  007D7E  25                 	db	37
   919  007D7F  28                 	db	40
   920  007D80  35                 	db	53
   921  007D81  01                 	db	1
   922  007D82  45                 	db	69
   923  007D83  28                 	db	40
   924  007D84  75                 	db	117
   925  007D85  08                 	db	8
   926  007D86  95                 	db	149
   927  007D87  01                 	db	1
   928  007D88  91                 	db	145
   929  007D89  02                 	db	2
   930  007D8A  09                 	db	9
   931  007D8B  6C                 	db	108
   932  007D8C  15                 	db	21
   933  007D8D  00                 	db	0
   934  007D8E  26                 	db	38
   935  007D8F  10                 	db	16
   936  007D90  27                 	db	39
   937  007D91  35                 	db	53
   938  007D92  00                 	db	0
   939  007D93  46                 	db	70
   940  007D94  10                 	db	16
   941  007D95  27                 	db	39
   942  007D96  75                 	db	117
   943  007D97  10                 	db	16
   944  007D98  95                 	db	149
   945  007D99  01                 	db	1
   946  007D9A  91                 	db	145
   947  007D9B  02                 	db	2
   948  007D9C  09                 	db	9
   949  007D9D  69                 	db	105
   950  007D9E  15                 	db	21
   951  007D9F  81                 	db	129
   952  007DA0  25                 	db	37
   953  007DA1  7F                 	db	127
   954  007DA2  35                 	db	53
   955  007DA3  00                 	db	0
   956  007DA4  46                 	db	70
   957  007DA5  FF                 	db	255
   958  007DA6  00                 	db	0
   959  007DA7  75                 	db	117
   960  007DA8  08                 	db	8
   961  007DA9  95                 	db	149
   962  007DAA  0C                 	db	12
   963  007DAB  92                 	db	146
   964  007DAC  02                 	db	2
   965  007DAD  01                 	db	1
   966  007DAE  C0                 	db	192
   967  007DAF  09                 	db	9
   968  007DB0  66                 	db	102
   969  007DB1  A1                 	db	161
   970  007DB2  02                 	db	2
   971  007DB3  85                 	db	133
   972  007DB4  08                 	db	8
   973  007DB5  05                 	db	5
   974  007DB6  01                 	db	1
   975  007DB7  09                 	db	9
   976  007DB8  30                 	db	48
   977  007DB9  09                 	db	9
   978  007DBA  31                 	db	49
   979  007DBB  15                 	db	21
   980  007DBC  81                 	db	129
   981  007DBD  25                 	db	37
   982  007DBE  7F                 	db	127
   983  007DBF  35                 	db	53
   984  007DC0  00                 	db	0
   985  007DC1  46                 	db	70
   986  007DC2  FF                 	db	255
   987  007DC3  00                 	db	0
   988  007DC4  75                 	db	117
   989  007DC5  08                 	db	8
   990  007DC6  95                 	db	149
   991  007DC7  02                 	db	2
   992  007DC8  91                 	db	145
   993  007DC9  02                 	db	2
   994  007DCA  C0                 	db	192
   995  007DCB  05                 	db	5
   996  007DCC  0F                 	db	15
   997  007DCD  09                 	db	9
   998  007DCE  77                 	db	119
   999  007DCF  A1                 	db	161
  1000  007DD0  02                 	db	2
  1001  007DD1  85                 	db	133
  1002  007DD2  0A                 	db	10
  1003  007DD3  09                 	db	9
  1004  007DD4  22                 	db	34
  1005  007DD5  15                 	db	21
  1006  007DD6  01                 	db	1
  1007  007DD7  25                 	db	37
  1008  007DD8  28                 	db	40
  1009  007DD9  35                 	db	53
  1010  007DDA  01                 	db	1
  1011  007DDB  45                 	db	69
  1012  007DDC  28                 	db	40
  1013  007DDD  75                 	db	117
  1014  007DDE  08                 	db	8
  1015  007DDF  95                 	db	149
  1016  007DE0  01                 	db	1
  1017  007DE1  91                 	db	145
  1018  007DE2  02                 	db	2
  1019  007DE3  09                 	db	9
  1020  007DE4  78                 	db	120
  1021  007DE5  A1                 	db	161
  1022  007DE6  02                 	db	2
  1023  007DE7  09                 	db	9
  1024  007DE8  79                 	db	121
  1025  007DE9  09                 	db	9
  1026  007DEA  7A                 	db	122
  1027  007DEB  09                 	db	9
  1028  007DEC  7B                 	db	123
  1029  007DED  15                 	db	21
  1030  007DEE  01                 	db	1
  1031  007DEF  25                 	db	37
  1032  007DF0  03                 	db	3
  1033  007DF1  75                 	db	117
  1034  007DF2  08                 	db	8
  1035  007DF3  95                 	db	149
  1036  007DF4  01                 	db	1
  1037  007DF5  91                 	db	145
  1038  007DF6  00                 	db	0
  1039  007DF7  C0                 	db	192
  1040  007DF8  09                 	db	9
  1041  007DF9  7C                 	db	124
  1042  007DFA  15                 	db	21
  1043  007DFB  00                 	db	0
  1044  007DFC  26                 	db	38
  1045  007DFD  FF                 	db	255
  1046  007DFE  00                 	db	0
  1047  007DFF  35                 	db	53
  1048  007E00  00                 	db	0
  1049  007E01  46                 	db	70
  1050  007E02  FF                 	db	255
  1051  007E03  00                 	db	0
  1052  007E04  91                 	db	145
  1053  007E05  02                 	db	2
  1054  007E06  C0                 	db	192
  1055  007E07  09                 	db	9
  1056  007E08  90                 	db	144
  1057  007E09  A1                 	db	161
  1058  007E0A  02                 	db	2
  1059  007E0B  85                 	db	133
  1060  007E0C  0B                 	db	11
  1061  007E0D  09                 	db	9
  1062  007E0E  22                 	db	34
  1063  007E0F  25                 	db	37
  1064  007E10  28                 	db	40
  1065  007E11  15                 	db	21
  1066  007E12  01                 	db	1
  1067  007E13  35                 	db	53
  1068  007E14  01                 	db	1
  1069  007E15  45                 	db	69
  1070  007E16  28                 	db	40
  1071  007E17  75                 	db	117
  1072  007E18  08                 	db	8
  1073  007E19  95                 	db	149
  1074  007E1A  01                 	db	1
  1075  007E1B  91                 	db	145
  1076  007E1C  02                 	db	2
  1077  007E1D  C0                 	db	192
  1078  007E1E  09                 	db	9
  1079  007E1F  96                 	db	150
  1080  007E20  A1                 	db	161
  1081  007E21  02                 	db	2
  1082  007E22  85                 	db	133
  1083  007E23  0C                 	db	12
  1084  007E24  09                 	db	9
  1085  007E25  97                 	db	151
  1086  007E26  09                 	db	9
  1087  007E27  98                 	db	152
  1088  007E28  09                 	db	9
  1089  007E29  99                 	db	153
  1090  007E2A  09                 	db	9
  1091  007E2B  9A                 	db	154
  1092  007E2C  09                 	db	9
  1093  007E2D  9B                 	db	155
  1094  007E2E  09                 	db	9
  1095  007E2F  9C                 	db	156
  1096  007E30  15                 	db	21
  1097  007E31  01                 	db	1
  1098  007E32  25                 	db	37
  1099  007E33  06                 	db	6
  1100  007E34  75                 	db	117
  1101  007E35  08                 	db	8
  1102  007E36  95                 	db	149
  1103  007E37  01                 	db	1
  1104  007E38  91                 	db	145
  1105  007E39  00                 	db	0
  1106  007E3A  C0                 	db	192
  1107  007E3B  09                 	db	9
  1108  007E3C  7D                 	db	125
  1109  007E3D  A1                 	db	161
  1110  007E3E  02                 	db	2
  1111  007E3F  85                 	db	133
  1112  007E40  0D                 	db	13
  1113  007E41  09                 	db	9
  1114  007E42  7E                 	db	126
  1115  007E43  15                 	db	21
  1116  007E44  00                 	db	0
  1117  007E45  26                 	db	38
  1118  007E46  FF                 	db	255
  1119  007E47  00                 	db	0
  1120  007E48  35                 	db	53
  1121  007E49  00                 	db	0
  1122  007E4A  46                 	db	70
  1123  007E4B  10                 	db	16
  1124  007E4C  27                 	db	39
  1125  007E4D  75                 	db	117
  1126  007E4E  08                 	db	8
  1127  007E4F  95                 	db	149
  1128  007E50  01                 	db	1
  1129  007E51  91                 	db	145
  1130  007E52  02                 	db	2
  1131  007E53  C0                 	db	192
  1132  007E54  09                 	db	9
  1133  007E55  6B                 	db	107
  1134  007E56  A1                 	db	161
  1135  007E57  02                 	db	2
  1136  007E58  85                 	db	133
  1137  007E59  0E                 	db	14
  1138  007E5A  09                 	db	9
  1139  007E5B  22                 	db	34
  1140  007E5C  15                 	db	21
  1141  007E5D  01                 	db	1
  1142  007E5E  25                 	db	37
  1143  007E5F  28                 	db	40
  1144  007E60  35                 	db	53
  1145  007E61  01                 	db	1
  1146  007E62  45                 	db	69
  1147  007E63  28                 	db	40
  1148  007E64  75                 	db	117
  1149  007E65  08                 	db	8
  1150  007E66  95                 	db	149
  1151  007E67  01                 	db	1
  1152  007E68  91                 	db	145
  1153  007E69  02                 	db	2
  1154  007E6A  09                 	db	9
  1155  007E6B  6D                 	db	109
  1156  007E6C  15                 	db	21
  1157  007E6D  00                 	db	0
  1158  007E6E  26                 	db	38
  1159  007E6F  FF                 	db	255
  1160  007E70  00                 	db	0
  1161  007E71  35                 	db	53
  1162  007E72  00                 	db	0
  1163  007E73  46                 	db	70
  1164  007E74  FF                 	db	255
  1165  007E75  00                 	db	0
  1166  007E76  75                 	db	117
  1167  007E77  08                 	db	8
  1168  007E78  95                 	db	149
  1169  007E79  01                 	db	1
  1170  007E7A  91                 	db	145
  1171  007E7B  02                 	db	2
  1172  007E7C  09                 	db	9
  1173  007E7D  51                 	db	81
  1174  007E7E  66                 	db	102
  1175  007E7F  03                 	db	3
  1176  007E80  10                 	db	16
  1177  007E81  55                 	db	85
  1178  007E82  FD                 	db	253
  1179  007E83  15                 	db	21
  1180  007E84  00                 	db	0
  1181  007E85  26                 	db	38
  1182  007E86  FF                 	db	255
  1183  007E87  7F                 	db	127
  1184  007E88  35                 	db	53
  1185  007E89  00                 	db	0
  1186  007E8A  46                 	db	70
  1187  007E8B  FF                 	db	255
  1188  007E8C  7F                 	db	127
  1189  007E8D  75                 	db	117
  1190  007E8E  10                 	db	16
  1191  007E8F  95                 	db	149
  1192  007E90  01                 	db	1
  1193  007E91  91                 	db	145
  1194  007E92  02                 	db	2
  1195  007E93  55                 	db	85
  1196  007E94  00                 	db	0
  1197  007E95  66                 	db	102
  1198  007E96  00                 	db	0
  1199  007E97  00                 	db	0
  1200  007E98  C0                 	db	192
  1201  007E99  09                 	db	9
  1202  007E9A  AB                 	db	171
  1203  007E9B  A1                 	db	161
  1204  007E9C  02                 	db	2
  1205  007E9D  85                 	db	133
  1206  007E9E  01                 	db	1
  1207  007E9F  09                 	db	9
  1208  007EA0  25                 	db	37
  1209  007EA1  A1                 	db	161
  1210  007EA2  02                 	db	2
  1211  007EA3  09                 	db	9
  1212  007EA4  26                 	db	38
  1213  007EA5  09                 	db	9
  1214  007EA6  27                 	db	39
  1215  007EA7  09                 	db	9
  1216  007EA8  30                 	db	48
  1217  007EA9  09                 	db	9
  1218  007EAA  31                 	db	49
  1219  007EAB  09                 	db	9
  1220  007EAC  32                 	db	50
  1221  007EAD  09                 	db	9
  1222  007EAE  33                 	db	51
  1223  007EAF  09                 	db	9
  1224  007EB0  34                 	db	52
  1225  007EB1  09                 	db	9
  1226  007EB2  40                 	db	64
  1227  007EB3  09                 	db	9
  1228  007EB4  41                 	db	65
  1229  007EB5  09                 	db	9
  1230  007EB6  42                 	db	66
  1231  007EB7  09                 	db	9
  1232  007EB8  43                 	db	67
  1233  007EB9  09                 	db	9
  1234  007EBA  28                 	db	40
  1235  007EBB  25                 	db	37
  1236  007EBC  0C                 	db	12
  1237  007EBD  15                 	db	21
  1238  007EBE  01                 	db	1
  1239  007EBF  35                 	db	53
  1240  007EC0  01                 	db	1
  1241  007EC1  45                 	db	69
  1242  007EC2  0C                 	db	12
  1243  007EC3  75                 	db	117
  1244  007EC4  08                 	db	8
  1245  007EC5  95                 	db	149
  1246  007EC6  01                 	db	1
  1247  007EC7  B1                 	db	177
  1248  007EC8  00                 	db	0
  1249  007EC9  C0                 	db	192
  1250  007ECA  05                 	db	5
  1251  007ECB  01                 	db	1
  1252  007ECC  09                 	db	9
  1253  007ECD  3B                 	db	59
  1254  007ECE  15                 	db	21
  1255  007ECF  00                 	db	0
  1256  007ED0  26                 	db	38
  1257  007ED1  FF                 	db	255
  1258  007ED2  01                 	db	1
  1259  007ED3  35                 	db	53
  1260  007ED4  00                 	db	0
  1261  007ED5  46                 	db	70
  1262  007ED6  FF                 	db	255
  1263  007ED7  01                 	db	1
  1264  007ED8  75                 	db	117
  1265  007ED9  0A                 	db	10
  1266  007EDA  95                 	db	149
  1267  007EDB  01                 	db	1
  1268  007EDC  B1                 	db	177
  1269  007EDD  02                 	db	2
  1270  007EDE  75                 	db	117
  1271  007EDF  06                 	db	6
  1272  007EE0  B1                 	db	177
  1273  007EE1  01                 	db	1
  1274  007EE2  C0                 	db	192
  1275  007EE3  05                 	db	5
  1276  007EE4  0F                 	db	15
  1277  007EE5  09                 	db	9
  1278  007EE6  89                 	db	137
  1279  007EE7  A1                 	db	161
  1280  007EE8  02                 	db	2
  1281  007EE9  85                 	db	133
  1282  007EEA  02                 	db	2
  1283  007EEB  09                 	db	9
  1284  007EEC  22                 	db	34
  1285  007EED  25                 	db	37
  1286  007EEE  28                 	db	40
  1287  007EEF  15                 	db	21
  1288  007EF0  01                 	db	1
  1289  007EF1  35                 	db	53
  1290  007EF2  01                 	db	1
  1291  007EF3  45                 	db	69
  1292  007EF4  28                 	db	40
  1293  007EF5  75                 	db	117
  1294  007EF6  08                 	db	8
  1295  007EF7  95                 	db	149
  1296  007EF8  01                 	db	1
  1297  007EF9  B1                 	db	177
  1298  007EFA  02                 	db	2
  1299  007EFB  09                 	db	9
  1300  007EFC  8B                 	db	139
  1301  007EFD  A1                 	db	161
  1302  007EFE  02                 	db	2
  1303  007EFF  09                 	db	9
  1304  007F00  8C                 	db	140
  1305  007F01  09                 	db	9
  1306  007F02  8D                 	db	141
  1307  007F03  09                 	db	9
  1308  007F04  8E                 	db	142
  1309  007F05  25                 	db	37
  1310  007F06  03                 	db	3
  1311  007F07  15                 	db	21
  1312  007F08  01                 	db	1
  1313  007F09  35                 	db	53
  1314  007F0A  01                 	db	1
  1315  007F0B  45                 	db	69
  1316  007F0C  03                 	db	3
  1317  007F0D  75                 	db	117
  1318  007F0E  08                 	db	8
  1319  007F0F  95                 	db	149
  1320  007F10  01                 	db	1
  1321  007F11  B1                 	db	177
  1322  007F12  00                 	db	0
  1323  007F13  C0                 	db	192
  1324  007F14  09                 	db	9
  1325  007F15  AC                 	db	172
  1326  007F16  15                 	db	21
  1327  007F17  00                 	db	0
  1328  007F18  27                 	db	39
  1329  007F19  FF                 	db	255
  1330  007F1A  FF                 	db	255
  1331  007F1B  00                 	db	0
  1332  007F1C  00                 	db	0
  1333  007F1D  35                 	db	53
  1334  007F1E  00                 	db	0
  1335  007F1F  47                 	db	71
  1336  007F20  FF                 	db	255
  1337  007F21  FF                 	db	255
  1338  007F22  00                 	db	0
  1339  007F23  00                 	db	0
  1340  007F24  75                 	db	117
  1341  007F25  10                 	db	16
  1342  007F26  95                 	db	149
  1343  007F27  01                 	db	1
  1344  007F28  B1                 	db	177
  1345  007F29  00                 	db	0
  1346  007F2A  C0                 	db	192
  1347  007F2B  09                 	db	9
  1348  007F2C  7F                 	db	127
  1349  007F2D  A1                 	db	161
  1350  007F2E  02                 	db	2
  1351  007F2F  85                 	db	133
  1352  007F30  03                 	db	3
  1353  007F31  09                 	db	9
  1354  007F32  80                 	db	128
  1355  007F33  75                 	db	117
  1356  007F34  10                 	db	16
  1357  007F35  95                 	db	149
  1358  007F36  01                 	db	1
  1359  007F37  15                 	db	21
  1360  007F38  00                 	db	0
  1361  007F39  35                 	db	53
  1362  007F3A  00                 	db	0
  1363  007F3B  27                 	db	39
  1364  007F3C  FF                 	db	255
  1365  007F3D  FF                 	db	255
  1366  007F3E  00                 	db	0
  1367  007F3F  00                 	db	0
  1368  007F40  47                 	db	71
  1369  007F41  FF                 	db	255
  1370  007F42  FF                 	db	255
  1371  007F43  00                 	db	0
  1372  007F44  00                 	db	0
  1373  007F45  B1                 	db	177
  1374  007F46  02                 	db	2
  1375  007F47  09                 	db	9
  1376  007F48  83                 	db	131
  1377  007F49  26                 	db	38
  1378  007F4A  FF                 	db	255
  1379  007F4B  00                 	db	0
  1380  007F4C  46                 	db	70
  1381  007F4D  FF                 	db	255
  1382  007F4E  00                 	db	0
  1383  007F4F  75                 	db	117
  1384  007F50  08                 	db	8
  1385  007F51  95                 	db	149
  1386  007F52  01                 	db	1
  1387  007F53  B1                 	db	177
  1388  007F54  02                 	db	2
  1389  007F55  09                 	db	9
  1390  007F56  A9                 	db	169
  1391  007F57  09                 	db	9
  1392  007F58  AA                 	db	170
  1393  007F59  75                 	db	117
  1394  007F5A  01                 	db	1
  1395  007F5B  95                 	db	149
  1396  007F5C  02                 	db	2
  1397  007F5D  15                 	db	21
  1398  007F5E  00                 	db	0
  1399  007F5F  25                 	db	37
  1400  007F60  01                 	db	1
  1401  007F61  35                 	db	53
  1402  007F62  00                 	db	0
  1403  007F63  45                 	db	69
  1404  007F64  01                 	db	1
  1405  007F65  B1                 	db	177
  1406  007F66  02                 	db	2
  1407  007F67  75                 	db	117
  1408  007F68  06                 	db	6
  1409  007F69  95                 	db	149
  1410  007F6A  01                 	db	1
  1411  007F6B  B1                 	db	177
  1412  007F6C  03                 	db	3
  1413  007F6D  C0                 	db	192
  1414  007F6E  C0                 	db	192
  1415  007F6F                     __end_of_hid_rpt01:
  1416                           	opt stack 0
  1417  007F6F                     _sd001:
  1418                           	opt stack 0
  1419  007F6F  34                 	db	52
  1420  007F70  03                 	db	3
  1421  007F71  004D               	dw	77
  1422  007F73  0069               	dw	105
  1423  007F75  0063               	dw	99
  1424  007F77  0072               	dw	114
  1425  007F79  006F               	dw	111
  1426  007F7B  0063               	dw	99
  1427  007F7D  0068               	dw	104
  1428  007F7F  0069               	dw	105
  1429  007F81  0070               	dw	112
  1430  007F83  0020               	dw	32
  1431  007F85  0054               	dw	84
  1432  007F87  0065               	dw	101
  1433  007F89  0063               	dw	99
  1434  007F8B  0068               	dw	104
  1435  007F8D  006E               	dw	110
  1436  007F8F  006F               	dw	111
  1437  007F91  006C               	dw	108
  1438  007F93  006F               	dw	111
  1439  007F95  0067               	dw	103
  1440  007F97  0079               	dw	121
  1441  007F99  0020               	dw	32
  1442  007F9B  0049               	dw	73
  1443  007F9D  006E               	dw	110
  1444  007F9F  0063               	dw	99
  1445  007FA1  002E               	dw	46
  1446  007FA3                     __end_of_sd001:
  1447                           	opt stack 0
  1448  007FA3                     _configDescriptor1:
  1449                           	opt stack 0
  1450  007FA3  09                 	db	9
  1451  007FA4  02                 	db	2
  1452  007FA5  22                 	db	34
  1453  007FA6  00                 	db	0
  1454  007FA7  01                 	db	1
  1455  007FA8  01                 	db	1
  1456  007FA9  00                 	db	0
  1457  007FAA  C0                 	db	192
  1458  007FAB  32                 	db	50
  1459  007FAC  09                 	db	9
  1460  007FAD  04                 	db	4
  1461  007FAE  00                 	db	0
  1462  007FAF  00                 	db	0
  1463  007FB0  02                 	db	2
  1464  007FB1  03                 	db	3
  1465  007FB2  00                 	db	0
  1466  007FB3  00                 	db	0
  1467  007FB4  00                 	db	0
  1468  007FB5  09                 	db	9
  1469  007FB6  21                 	db	33
  1470  007FB7  11                 	db	17
  1471  007FB8  01                 	db	1
  1472  007FB9  00                 	db	0
  1473  007FBA  01                 	db	1
  1474  007FBB  22                 	db	34
  1475  007FBC  06                 	db	6
  1476  007FBD  05                 	db	5
  1477  007FBE  07                 	db	7
  1478  007FBF  05                 	db	5
  1479  007FC0  81                 	db	129
  1480  007FC1  03                 	db	3
  1481  007FC2  40                 	db	64
  1482  007FC3  00                 	db	0
  1483  007FC4  01                 	db	1
  1484  007FC5  07                 	db	7
  1485  007FC6  05                 	db	5
  1486  007FC7  01                 	db	1
  1487  007FC8  03                 	db	3
  1488  007FC9  40                 	db	64
  1489  007FCA  00                 	db	0
  1490  007FCB  01                 	db	1
  1491  007FCC                     __end_of_configDescriptor1:
  1492                           	opt stack 0
  1493  007FCC                     _sd002:
  1494                           	opt stack 0
  1495  007FCC  1C                 	db	28
  1496  007FCD  03                 	db	3
  1497  007FCE  004A               	dw	74
  1498  007FD0  006F               	dw	111
  1499  007FD2  0079               	dw	121
  1500  007FD4  0073               	dw	115
  1501  007FD6  0074               	dw	116
  1502  007FD8  0069               	dw	105
  1503  007FDA  0063               	dw	99
  1504  007FDC  006B               	dw	107
  1505  007FDE  0020               	dw	32
  1506  007FE0  0044               	dw	68
  1507  007FE2  0065               	dw	101
  1508  007FE4  006D               	dw	109
  1509  007FE6  006F               	dw	111
  1510  007FE8                     __end_of_sd002:
  1511                           	opt stack 0
  1512  007FE8                     _device_dsc:
  1513                           	opt stack 0
  1514  007FE8  12                 	db	18
  1515  007FE9  01                 	db	1
  1516  007FEA  0200               	dw	512
  1517  007FEC  00                 	db	0
  1518  007FED  00                 	db	0
  1519  007FEE  00                 	db	0
  1520  007FEF  08                 	db	8
  1521  007FF0  04D8               	dw	1240
  1522  007FF2  005E               	dw	94
  1523  007FF4  0001               	dw	1
  1524  007FF6  01                 	db	1
  1525  007FF7  02                 	db	2
  1526  007FF8  00                 	db	0
  1527  007FF9  01                 	db	1
  1528  007FFA                     __end_of_device_dsc:
  1529                           	opt stack 0
  1530  007FFA                     _sd000:
  1531                           	opt stack 0
  1532  007FFA  04                 	db	4
  1533  007FFB  03                 	db	3
  1534  007FFC  0409               	dw	1033
  1535  007FFE                     __end_of_sd000:
  1536                           	opt stack 0
  1537  0000                     _ANSELAbits	set	3931
  1538  0000                     _ANSELDbits	set	3934
  1539  0000                     _ANSELBbits	set	3932
  1540  0000                     _PORTAbits	set	3968
  1541  0000                     _ADCON1bits	set	4033
  1542  0000                     _TRISAbits	set	3986
  1543  0000                     _ADRESL	set	4035
  1544  0000                     _ADCON0bits	set	4034
  1545  0000                     _ACTCON	set	4021
  1546  0000                     _OSCCON2bits	set	4050
  1547  0000                     _OSCCON2	set	4050
  1548  0000                     _OSCCON	set	4051
  1549  0000                     _OSCTUNE	set	3995
  1550  0000                     _UEP0bits	set	3946
  1551  0000                     _USTAT	set	3937
  1552  0000                     _UIEbits	set	3940
  1553  0000                     _PIR3bits	set	4004
  1554  0000                     _UCON	set	3936
  1555  0000                     _UIRbits	set	3941
  1556  0000                     _UADDR	set	3939
  1557  0000                     _UCONbits	set	3936
  1558  0000                     _UIE	set	3940
  1559  0000                     _UEIE	set	3942
  1560  0000                     _UCFG	set	3938
  1561  0000                     _UIR	set	3941
  1562  0000                     _UEIR	set	3943
  1563  0000                     _PIE3bits	set	4003
  1564  0000                     _LATDbits	set	3980
  1565  0000                     _TRISDbits	set	3989
  1566  0000                     _TRISBbits	set	3987
  1567  0000                     _PORTDbits	set	3971
  1568  0000                     _PORTBbits	set	3969
  1569  0000                     _UEP1	set	3947
  1570  0000                     _UEP0	set	3946
  1571  0000                     _GO_nDONE	set	32273
  1572                           
  1573                           ; #config settings
  1574  007FFE  00                 	db	0	; dummy byte at the end
  1575  0000                     
  1576                           	psect	cinit
  1577  001A34                     __pcinit:
  1578                           	opt stack 0
  1579  001A34                     start_initialization:
  1580                           	opt stack 0
  1581  001A34                     __initialization:
  1582                           	opt stack 0
  1583                           
  1584                           ; Initialize objects allocated to COMRAM (1 bytes)
  1585                           ; load TBLPTR registers with __pidataCOMRAM
  1586  001A34  0E8E               	movlw	low __pidataCOMRAM
  1587  001A36  6EF6               	movwf	tblptrl,c
  1588  001A38  0E1C               	movlw	high __pidataCOMRAM
  1589  001A3A  6EF7               	movwf	tblptrh,c
  1590  001A3C  0E00               	movlw	low (__pidataCOMRAM shr (0+16))
  1591  001A3E  6EF8               	movwf	tblptru,c
  1592  001A40  0009               	tblrd		*+	;fetch initializer
  1593  001A42  CFF5 F04C          	movff	tablat,__pdataCOMRAM
  1594                           
  1595                           ; Clear objects allocated to BANK1 (64 bytes)
  1596  001A46  EE01  F000         	lfsr	0,__pbssBANK1
  1597  001A4A  0E40               	movlw	64
  1598  001A4C                     clear_0:
  1599  001A4C  6AEE               	clrf	postinc0,c
  1600  001A4E  06E8               	decf	wreg,f,c
  1601  001A50  E1FD               	bnz	clear_0
  1602                           
  1603                           ; Clear objects allocated to BANK0 (102 bytes)
  1604  001A52  EE00  F060         	lfsr	0,__pbssBANK0
  1605  001A56  0E66               	movlw	102
  1606  001A58                     clear_1:
  1607  001A58  6AEE               	clrf	postinc0,c
  1608  001A5A  06E8               	decf	wreg,f,c
  1609  001A5C  E1FD               	bnz	clear_1
  1610                           
  1611                           ; Clear objects allocated to COMRAM (47 bytes)
  1612  001A5E  EE00  F001         	lfsr	0,__pbssCOMRAM
  1613  001A62  0E2F               	movlw	47
  1614  001A64                     clear_2:
  1615  001A64  6AEE               	clrf	postinc0,c
  1616  001A66  06E8               	decf	wreg,f,c
  1617  001A68  E1FD               	bnz	clear_2
  1618  001A6A                     end_of_initialization:
  1619                           	opt stack 0
  1620  001A6A                     __end_of__initialization:
  1621                           	opt stack 0
  1622  001A6A  904D               	bcf	int$flags,0,c	;clear compiler interrupt flag (level 1)
  1623  001A6C  924D               	bcf	int$flags,1,c	;clear compiler interrupt flag (level 2)
  1624  001A6E  0E00               	movlw	low (__Lmediumconst shr (0+16))
  1625  001A70  6EF8               	movwf	tblptru,c
  1626  001A72  0100               	movlb	0
  1627  001A74  EF1B  F00E         	goto	_main	;jump to C main() function
  1628                           tblptru	equ	0xFF8
  1629                           tblptrh	equ	0xFF7
  1630                           tblptrl	equ	0xFF6
  1631                           tablat	equ	0xFF5
  1632                           postinc0	equ	0xFEE
  1633                           wreg	equ	0xFE8
  1634                           
  1635                           	psect	bssCOMRAM
  1636  000001                     __pbssCOMRAM:
  1637                           	opt stack 0
  1638  000001                     _outPipes:
  1639                           	opt stack 0
  1640  000001                     	ds	8
  1641  000009                     _inPipes:
  1642                           	opt stack 0
  1643  000009                     	ds	6
  1644  00000F                     _pBDTEntryIn:
  1645                           	opt stack 0
  1646  00000F                     	ds	4
  1647  000013                     WHEEL_Test@count:
  1648                           	opt stack 0
  1649  000013                     	ds	2
  1650  000015                     APP_LEDUpdateUSBStatus@ledCount:
  1651                           	opt stack 0
  1652  000015                     	ds	2
  1653  000017                     _pBDTEntryEP0OutNext:
  1654                           	opt stack 0
  1655  000017                     	ds	2
  1656  000019                     _pBDTEntryEP0OutCurrent:
  1657                           	opt stack 0
  1658  000019                     	ds	2
  1659  00001B                     _Buttons_Pressed:
  1660                           	opt stack 0
  1661  00001B                     	ds	1
  1662  00001C                     _CLUTCH_Type:
  1663                           	opt stack 0
  1664  00001C                     	ds	1
  1665  00001D                     _BREAK_Type:
  1666                           	opt stack 0
  1667  00001D                     	ds	1
  1668  00001E                     _WHEEL_Type:
  1669                           	opt stack 0
  1670  00001E                     	ds	1
  1671  00001F                     _USBTicksSinceSuspendEnd:
  1672                           	opt stack 0
  1673  00001F                     	ds	1
  1674  000020                     _USBDeferOUTDataStagePackets:
  1675                           	opt stack 0
  1676  000020                     	ds	1
  1677  000021                     _USBDeferINDataStagePackets:
  1678                           	opt stack 0
  1679  000021                     	ds	1
  1680  000022                     _USBStatusStageEnabledFlag2:
  1681                           	opt stack 0
  1682  000022                     	ds	1
  1683  000023                     _USBStatusStageEnabledFlag1:
  1684                           	opt stack 0
  1685  000023                     	ds	1
  1686  000024                     _USBDeferStatusStagePacket:
  1687                           	opt stack 0
  1688  000024                     	ds	1
  1689  000025                     _USBStatusStageTimeoutCounter:
  1690                           	opt stack 0
  1691  000025                     	ds	1
  1692  000026                     _BothEP0OutUOWNsSet:
  1693                           	opt stack 0
  1694  000026                     	ds	1
  1695  000027                     _endpoint_number:
  1696                           	opt stack 0
  1697  000027                     	ds	1
  1698  000028                     _USBBusIsSuspended:
  1699                           	opt stack 0
  1700  000028                     	ds	1
  1701  000029                     _RemoteWakeup:
  1702                           	opt stack 0
  1703  000029                     	ds	1
  1704  00002A                     _controlTransferState:
  1705                           	opt stack 0
  1706  00002A                     	ds	1
  1707  00002B                     _shortPacketStatus:
  1708                           	opt stack 0
  1709  00002B                     	ds	1
  1710  00002C                     _USBDeviceState:
  1711                           	opt stack 0
  1712  00002C                     	ds	1
  1713  00002D                     _USTATcopy:
  1714                           	opt stack 0
  1715  00002D                     	ds	1
  1716  00002E                     _USBAlternateInterface:
  1717                           	opt stack 0
  1718  00002E                     	ds	1
  1719  00002F                     _USBActiveConfiguration:
  1720                           	opt stack 0
  1721  00002F                     	ds	1
  1722                           tblptru	equ	0xFF8
  1723                           tblptrh	equ	0xFF7
  1724                           tblptrl	equ	0xFF6
  1725                           tablat	equ	0xFF5
  1726                           postinc0	equ	0xFEE
  1727                           wreg	equ	0xFE8
  1728                           
  1729                           	psect	dataCOMRAM
  1730  00004C                     __pdataCOMRAM:
  1731                           	opt stack 0
  1732  00004C                     WHEEL_Test@direction:
  1733                           	opt stack 0
  1734  00004C                     	ds	1
  1735                           tblptru	equ	0xFF8
  1736                           tblptrh	equ	0xFF7
  1737                           tblptrl	equ	0xFF6
  1738                           tablat	equ	0xFF5
  1739                           postinc0	equ	0xFEE
  1740                           wreg	equ	0xFE8
  1741                           
  1742                           	psect	bssBANK0
  1743  000060                     __pbssBANK0:
  1744                           	opt stack 0
  1745  000060                     _CONFIGURED_EFFECT_NUMBER:
  1746                           	opt stack 0
  1747  000060                     	ds	12
  1748  00006C                     _USB1msTickCount:
  1749                           	opt stack 0
  1750  00006C                     	ds	4
  1751  000070                     _pBDTEntryOut:
  1752                           	opt stack 0
  1753  000070                     	ds	4
  1754  000074                     _lastTransmission:
  1755                           	opt stack 0
  1756  000074                     	ds	2
  1757  000076                     _ep_data_out:
  1758                           	opt stack 0
  1759  000076                     	ds	2
  1760  000078                     _ep_data_in:
  1761                           	opt stack 0
  1762  000078                     	ds	2
  1763  00007A                     _pDst:
  1764                           	opt stack 0
  1765  00007A                     	ds	2
  1766  00007C                     _hid_report_out:
  1767                           	opt stack 0
  1768  00007C                     	ds	64
  1769  0000BC                     _set_get_effect_structure:
  1770                           	opt stack 0
  1771  0000BC                     	ds	8
  1772  0000C4                     _active_protocol:
  1773                           	opt stack 0
  1774  0000C4                     	ds	1
  1775  0000C5                     _idle_rate:
  1776                           	opt stack 0
  1777  0000C5                     	ds	1
  1778                           tblptru	equ	0xFF8
  1779                           tblptrh	equ	0xFF7
  1780                           tblptrl	equ	0xFF6
  1781                           tablat	equ	0xFF5
  1782                           postinc0	equ	0xFEE
  1783                           wreg	equ	0xFE8
  1784                           
  1785                           	psect	bssBANK1
  1786  000100                     __pbssBANK1:
  1787                           	opt stack 0
  1788  000100                     _hid_report_in:
  1789                           	opt stack 0
  1790  000100                     	ds	64
  1791                           tblptru	equ	0xFF8
  1792                           tblptrh	equ	0xFF7
  1793                           tblptrl	equ	0xFF6
  1794                           tablat	equ	0xFF5
  1795                           postinc0	equ	0xFEE
  1796                           wreg	equ	0xFE8
  1797                           
  1798                           	psect	cstackBANK0
  1799  0000C6                     __pcstackBANK0:
  1800                           	opt stack 0
  1801  0000C6                     USBTransferOnePacket@ep:
  1802                           	opt stack 0
  1803  0000C6                     memcpy@tmp:
  1804                           	opt stack 0
  1805  0000C6                     USBEnableEndpoint@p:
  1806                           	opt stack 0
  1807                           
  1808                           ; 2 bytes @ 0x0
  1809  0000C6                     	ds	1
  1810  0000C7                     USBTransferOnePacket@handle:
  1811                           	opt stack 0
  1812  0000C7                     memcpy@d:
  1813                           	opt stack 0
  1814                           
  1815                           ; 2 bytes @ 0x1
  1816  0000C7                     	ds	1
  1817  0000C8                     USBEnableEndpoint@ep:
  1818                           	opt stack 0
  1819                           
  1820                           ; 1 bytes @ 0x2
  1821  0000C8                     	ds	1
  1822  0000C9                     USER_USB_CALLBACK_EVENT_HANDLER@event:
  1823                           	opt stack 0
  1824  0000C9                     memcpy@s:
  1825                           	opt stack 0
  1826                           
  1827                           ; 2 bytes @ 0x3
  1828  0000C9                     	ds	2
  1829  0000CB                     USER_USB_CALLBACK_EVENT_HANDLER@pdata:
  1830                           	opt stack 0
  1831                           
  1832                           ; 2 bytes @ 0x5
  1833  0000CB                     	ds	2
  1834  0000CD                     USER_USB_CALLBACK_EVENT_HANDLER@size:
  1835                           	opt stack 0
  1836                           
  1837                           ; 2 bytes @ 0x7
  1838  0000CD                     	ds	2
  1839  0000CF                     ??_USER_USB_CALLBACK_EVENT_HANDLER:
  1840                           
  1841                           ; 1 bytes @ 0x9
  1842  0000CF                     	ds	2
  1843  0000D1                     USBStdFeatureReqHandler@pUEP:
  1844                           	opt stack 0
  1845                           
  1846                           ; 2 bytes @ 0xB
  1847  0000D1                     	ds	2
  1848  0000D3                     USBStdFeatureReqHandler@current_ep_data:
  1849                           	opt stack 0
  1850                           
  1851                           ; 1 bytes @ 0xD
  1852  0000D3                     	ds	1
  1853  0000D4                     USBStdFeatureReqHandler@p:
  1854                           	opt stack 0
  1855                           
  1856                           ; 2 bytes @ 0xE
  1857  0000D4                     	ds	2
  1858  0000D6                     ??_USBCtrlEPService:
  1859                           
  1860                           ; 1 bytes @ 0x10
  1861  0000D6                     	ds	1
  1862  0000D7                     USBDeviceTasks@i:
  1863                           	opt stack 0
  1864                           
  1865                           ; 1 bytes @ 0x11
  1866  0000D7                     	ds	1
  1867                           tblptru	equ	0xFF8
  1868                           tblptrh	equ	0xFF7
  1869                           tblptrl	equ	0xFF6
  1870                           tablat	equ	0xFF5
  1871                           postinc0	equ	0xFEE
  1872                           wreg	equ	0xFE8
  1873                           
  1874                           	psect	cstackCOMRAM
  1875  000030                     __pcstackCOMRAM:
  1876                           	opt stack 0
  1877  000030                     ??_SYS_InterruptHigh:
  1878                           
  1879                           ; 1 bytes @ 0x0
  1880  000030                     	ds	18
  1881  000042                     ??_PEDAL_Position:
  1882  000042                     ??_USBStdGetDscHandler:
  1883  000042                     ??_USBStdGetStatusHandler:
  1884  000042                     ?_USBTransferOnePacket:
  1885                           	opt stack 0
  1886  000042                     BUTTON_IsPressed@button:
  1887                           	opt stack 0
  1888  000042                     BUTTON_Enable@button:
  1889                           	opt stack 0
  1890  000042                     LED_On@led:
  1891                           	opt stack 0
  1892  000042                     LED_Off@led:
  1893                           	opt stack 0
  1894  000042                     LED_Enable@led:
  1895                           	opt stack 0
  1896  000042                     USBTransferOnePacket@dir:
  1897                           	opt stack 0
  1898  000042                     USBConfigureEndpoint@direction:
  1899                           	opt stack 0
  1900  000042                     USBCtrlTrfTxService@byteToSend:
  1901                           	opt stack 0
  1902  000042                     USBCtrlTrfRxService@i:
  1903                           	opt stack 0
  1904  000042                     WHEEL_Enable@wheel:
  1905                           	opt stack 0
  1906  000042                     WHEEL_Test@wheel:
  1907                           	opt stack 0
  1908  000042                     memcpy@d1:
  1909                           	opt stack 0
  1910  000042                     memset@p1:
  1911                           	opt stack 0
  1912                           
  1913                           ; 2 bytes @ 0x12
  1914  000042                     	ds	1
  1915  000043                     ??_USBConfigureEndpoint:
  1916  000043                     USBCtrlTrfRxService@byteToRead:
  1917                           	opt stack 0
  1918  000043                     USBCtrlTrfInHandler@lastDTS:
  1919                           	opt stack 0
  1920  000043                     SYSTEM_Initialize@state:
  1921                           	opt stack 0
  1922  000043                     PEDAL_Position@pedal:
  1923                           	opt stack 0
  1924  000043                     USBTransferOnePacket@data:
  1925                           	opt stack 0
  1926  000043                     USBStdGetStatusHandler@p:
  1927                           	opt stack 0
  1928                           
  1929                           ; 2 bytes @ 0x13
  1930  000043                     	ds	1
  1931  000044                     memcpy@s1:
  1932                           	opt stack 0
  1933  000044                     memset@c:
  1934                           	opt stack 0
  1935                           
  1936                           ; 2 bytes @ 0x14
  1937  000044                     	ds	1
  1938  000045                     USBTransferOnePacket@len:
  1939                           	opt stack 0
  1940                           
  1941                           ; 1 bytes @ 0x15
  1942  000045                     	ds	1
  1943  000046                     ??_USBTransferOnePacket:
  1944  000046                     memcpy@n:
  1945                           	opt stack 0
  1946  000046                     memset@n:
  1947                           	opt stack 0
  1948                           
  1949                           ; 2 bytes @ 0x16
  1950  000046                     	ds	1
  1951  000047                     USBConfigureEndpoint@EPNum:
  1952                           	opt stack 0
  1953                           
  1954                           ; 1 bytes @ 0x17
  1955  000047                     	ds	1
  1956  000048                     USBConfigureEndpoint@handle:
  1957                           	opt stack 0
  1958  000048                     memset@p:
  1959                           	opt stack 0
  1960                           
  1961                           ; 2 bytes @ 0x18
  1962  000048                     	ds	2
  1963  00004A                     ??_APP_DeviceJoystickTasks:
  1964  00004A                     USBDeviceInit@i:
  1965                           	opt stack 0
  1966  00004A                     USBEnableEndpoint@options:
  1967                           	opt stack 0
  1968                           
  1969                           ; 1 bytes @ 0x1A
  1970  00004A                     	ds	1
  1971  00004B                     ??_USBStdFeatureReqHandler:
  1972  00004B                     USBStdSetCfgHandler@i:
  1973                           	opt stack 0
  1974                           
  1975                           ; 1 bytes @ 0x1B
  1976  00004B                     	ds	1
  1977  00004C                     tblptru	equ	0xFF8
  1978                           tblptrh	equ	0xFF7
  1979                           tblptrl	equ	0xFF6
  1980                           tablat	equ	0xFF5
  1981                           postinc0	equ	0xFEE
  1982                           wreg	equ	0xFE8
  1983                           
  1984                           ; 1 bytes @ 0x1C
  1985 ;;
  1986 ;;Main: autosize = 0, tempsize = 0, incstack = 0, save=0
  1987 ;;
  1988 ;; *************** function _main *****************
  1989 ;; Defined at:
  1990 ;;		line 31 in file "../demo_src/main.c"
  1991 ;; Parameters:    Size  Location     Type
  1992 ;;		None
  1993 ;; Auto vars:     Size  Location     Type
  1994 ;;		None
  1995 ;; Return value:  Size  Location     Type
  1996 ;;                  1    wreg      void 
  1997 ;; Registers used:
  1998 ;;		wreg, fsr0l, fsr0h, fsr1l, fsr1h, fsr2l, fsr2h, status,2, status,0, pclath, tosl, tblptrl, tblptrh, tblptru, prodl, 
      +prodh, cstack
  1999 ;; Tracked objects:
  2000 ;;		On entry : 0/0
  2001 ;;		On exit  : 0/0
  2002 ;;		Unchanged: 0/0
  2003 ;; Data sizes:     COMRAM   BANK0   BANK1   BANK2   BANK3   BANK4   BANK5   BANK6   BANK7
  2004 ;;      Params:         0       0       0       0       0       0       0       0       0
  2005 ;;      Locals:         0       0       0       0       0       0       0       0       0
  2006 ;;      Temps:          0       0       0       0       0       0       0       0       0
  2007 ;;      Totals:         0       0       0       0       0       0       0       0       0
  2008 ;;Total ram usage:        0 bytes
  2009 ;; Hardware stack levels required when called:   10
  2010 ;; This function calls:
  2011 ;;		_APP_DeviceJoystickTasks
  2012 ;;		_SYSTEM_Initialize
  2013 ;;		_USBDeviceInit
  2014 ;;		_USBDeviceTasks
  2015 ;; This function is called by:
  2016 ;;		Startup code after reset
  2017 ;; This function uses a non-reentrant model
  2018 ;;
  2019                           
  2020                           	psect	text0
  2021  001C36                     __ptext0:
  2022                           	opt stack 0
  2023  001C36                     _main:
  2024                           	opt stack 21
  2025                           
  2026                           ;main.c: 33: SYSTEM_Initialize(SYSTEM_STATE_USB_START);
  2027                           
  2028                           ;incstack = 0
  2029  001C36  0E00               	movlw	0
  2030  001C38  EC7F  F00D         	call	_SYSTEM_Initialize
  2031                           
  2032                           ;main.c: 35: USBDeviceInit();
  2033  001C3C  EC0B  F004         	call	_USBDeviceInit	;wreg free
  2034  001C40                     
  2035                           ;main.c: 39: {
  2036                           ;main.c: 40: ;
  2037                           ;main.c: 55: USBDeviceTasks();
  2038  001C40  EC5C  F003         	call	_USBDeviceTasks	;wreg free
  2039                           
  2040                           ;main.c: 61: if( USBDeviceState < CONFIGURED_STATE )
  2041  001C44  0E20               	movlw	32
  2042  001C46  602C               	cpfslt	_USBDeviceState,c
  2043  001C48  D001               	goto	l662
  2044  001C4A  D7FA               	goto	l661
  2045  001C4C                     l662:
  2046                           
  2047                           ;main.c: 65: }
  2048                           ;main.c: 71: if( UCONbits.SUSPND == 1 )
  2049  001C4C  B260               	btfsc	3936,1,c	;volatile
  2050  001C4E  D7F8               	goto	l661
  2051                           
  2052                           ;main.c: 75: }
  2053                           ;main.c: 78: APP_DeviceJoystickTasks();
  2054                           
  2055                           ;main.c: 72: {
  2056                           ;main.c: 74: continue;
  2057  001C50  EC95  F001         	call	_APP_DeviceJoystickTasks	;wreg free
  2058  001C54  D7F5               	goto	l661
  2059  001C56                     __end_of_main:
  2060                           	opt stack 0
  2061                           tblptru	equ	0xFF8
  2062                           tblptrh	equ	0xFF7
  2063                           tblptrl	equ	0xFF6
  2064                           tablat	equ	0xFF5
  2065                           postinc0	equ	0xFEE
  2066                           wreg	equ	0xFE8
  2067                           
  2068 ;; *************** function _USBDeviceTasks *****************
  2069 ;; Defined at:
  2070 ;;		line 484 in file "../../../../../../framework/usb/src/usb_device.c"
  2071 ;; Parameters:    Size  Location     Type
  2072 ;;		None
  2073 ;; Auto vars:     Size  Location     Type
  2074 ;;  i               1   17[BANK0 ] unsigned char 
  2075 ;; Return value:  Size  Location     Type
  2076 ;;                  1    wreg      void 
  2077 ;; Registers used:
  2078 ;;		wreg, fsr0l, fsr0h, fsr1l, fsr1h, fsr2l, fsr2h, status,2, status,0, pclath, tosl, tblptrl, tblptrh, tblptru, prodl, 
      +prodh, cstack
  2079 ;; Tracked objects:
  2080 ;;		On entry : 0/0
  2081 ;;		On exit  : 0/0
  2082 ;;		Unchanged: 0/0
  2083 ;; Data sizes:     COMRAM   BANK0   BANK1   BANK2   BANK3   BANK4   BANK5   BANK6   BANK7
  2084 ;;      Params:         0       0       0       0       0       0       0       0       0
  2085 ;;      Locals:         0       1       0       0       0       0       0       0       0
  2086 ;;      Temps:          0       0       0       0       0       0       0       0       0
  2087 ;;      Totals:         0       1       0       0       0       0       0       0       0
  2088 ;;Total ram usage:        1 bytes
  2089 ;; Hardware stack levels used:    1
  2090 ;; Hardware stack levels required when called:    9
  2091 ;; This function calls:
  2092 ;;		_USBCtrlEPAllowStatusStage
  2093 ;;		_USBCtrlEPService
  2094 ;;		_USBDeviceInit
  2095 ;;		_USBIncrement1msInternalTimers
  2096 ;;		_USBStallHandler
  2097 ;;		_USBSuspend
  2098 ;;		_USBWakeFromSuspend
  2099 ;;		_USER_USB_CALLBACK_EVENT_HANDLER
  2100 ;; This function is called by:
  2101 ;;		_main
  2102 ;; This function uses a non-reentrant model
  2103 ;;
  2104                           
  2105                           	psect	text1
  2106  0006B8                     __ptext1:
  2107                           	opt stack 0
  2108  0006B8                     _USBDeviceTasks:
  2109                           	opt stack 21
  2110                           
  2111                           ;usb_device.c: 551: }
  2112                           ;usb_device.c: 573: if(USBDeviceState == DETACHED_STATE)
  2113                           
  2114                           ;usb_device.c: 550: return;
  2115                           
  2116                           ;usb_device.c: 549: PIR3bits.USBIF = 0;;
  2117                           
  2118                           ;usb_device.c: 521: USBDeviceState = DETACHED_STATE;
  2119                           
  2120                           ;usb_device.c: 518: UIE = 0;
  2121                           
  2122                           ;usb_device.c: 513: {
  2123                           ;usb_device.c: 515: UCON = 0;
  2124                           
  2125                           ;usb_device.c: 486: uint8_t i;
  2126                           ;usb_device.c: 512: if (1 != 1)
  2127                           
  2128                           ;incstack = 0
  2129  0006B8  502C               	movf	_USBDeviceState,w,c
  2130  0006BA  A4D8               	btfss	status,2,c
  2131  0006BC  D010               	goto	l254
  2132                           
  2133                           ;usb_device.c: 574: {
  2134                           ;usb_device.c: 576: UCON = 0;
  2135  0006BE  0E00               	movlw	0
  2136  0006C0  6E60               	movwf	3936,c	;volatile
  2137                           
  2138                           ;usb_device.c: 579: UIE = 0;
  2139  0006C2  0E00               	movlw	0
  2140  0006C4  6E64               	movwf	3940,c	;volatile
  2141                           
  2142                           ;usb_device.c: 583: { UCFG = 0x10 | 0x00 | 0x04 | 0x02; UEIE = 0x9F; UIE = 0x39 | 0x40 |
      +                           0x02; };
  2143  0006C6  0E16               	movlw	22
  2144  0006C8  6E62               	movwf	3938,c	;volatile
  2145  0006CA  0E9F               	movlw	159
  2146  0006CC  6E66               	movwf	3942,c	;volatile
  2147  0006CE  0E7B               	movlw	123
  2148  0006D0  6E64               	movwf	3940,c	;volatile
  2149                           
  2150                           ;usb_device.c: 586: while(!UCONbits.USBEN){UCONbits.USBEN = 1;}
  2151  0006D2  D001               	goto	l255
  2152  0006D4                     l256:
  2153  0006D4  8660               	bsf	3936,3,c	;volatile
  2154  0006D6                     l255:
  2155  0006D6  A660               	btfss	3936,3,c	;volatile
  2156  0006D8  D7FD               	goto	l256
  2157                           
  2158                           ;usb_device.c: 589: USBDeviceState = ATTACHED_STATE;
  2159  0006DA  0E01               	movlw	1
  2160  0006DC  6E2C               	movwf	_USBDeviceState,c
  2161  0006DE                     l254:
  2162                           
  2163                           ;usb_device.c: 594: }
  2164                           ;usb_device.c: 597: if(USBDeviceState == ATTACHED_STATE)
  2165  0006DE  042C               	decf	_USBDeviceState,w,c
  2166  0006E0  B4D8               	btfsc	status,2,c
  2167                           
  2168                           ;usb_device.c: 598: {
  2169                           ;usb_device.c: 608: if(!UCONbits.SE0)
  2170  0006E2  BA60               	btfsc	3936,5,c	;volatile
  2171  0006E4  D008               	goto	l259
  2172                           
  2173                           ;usb_device.c: 609: {
  2174                           ;usb_device.c: 615: {UIR = 0;};
  2175  0006E6  0E00               	movlw	0
  2176  0006E8  6E65               	movwf	3941,c	;volatile
  2177                           
  2178                           ;usb_device.c: 619: UIE=0;
  2179  0006EA  0E00               	movlw	0
  2180  0006EC  6E64               	movwf	3940,c	;volatile
  2181                           
  2182                           ;usb_device.c: 621: UIEbits.URSTIE = 1;
  2183  0006EE  8064               	bsf	3940,0,c	;volatile
  2184                           
  2185                           ;usb_device.c: 622: UIEbits.IDLEIE = 1;
  2186  0006F0  8864               	bsf	3940,4,c	;volatile
  2187                           
  2188                           ;usb_device.c: 623: USBDeviceState = POWERED_STATE;
  2189  0006F2  0E02               	movlw	2
  2190  0006F4  6E2C               	movwf	_USBDeviceState,c
  2191  0006F6                     l259:
  2192                           
  2193                           ;usb_device.c: 624: }
  2194                           ;usb_device.c: 625: }
  2195                           ;usb_device.c: 641: if(UIRbits.ACTVIF && UIEbits.ACTVIE)
  2196  0006F6  B465               	btfsc	3941,2,c	;volatile
  2197  0006F8  A464               	btfss	3940,2,c	;volatile
  2198  0006FA  D003               	goto	l260
  2199                           
  2200                           ;usb_device.c: 642: {
  2201                           ;usb_device.c: 643: (UIR &= 0xFB);
  2202  0006FC  9465               	bcf	3941,2,c	;volatile
  2203                           
  2204                           ;usb_device.c: 647: USBWakeFromSuspend();
  2205  0006FE  ECD4  F00D         	call	_USBWakeFromSuspend	;wreg free
  2206  000702                     l260:
  2207                           
  2208                           ;usb_device.c: 649: }
  2209                           ;usb_device.c: 654: if(UCONbits.SUSPND==1)
  2210  000702  A260               	btfss	3936,1,c	;volatile
  2211  000704  D002               	goto	l261
  2212                           
  2213                           ;usb_device.c: 655: {
  2214                           ;usb_device.c: 656: PIR3bits.USBIF = 0;;
  2215  000706  94A4               	bcf	4004,2,c	;volatile
  2216                           
  2217                           ;usb_device.c: 657: return;
  2218  000708  0012               	return	
  2219  00070A                     l261:
  2220                           
  2221                           ;usb_device.c: 658: }
  2222                           ;usb_device.c: 670: if(UIRbits.URSTIF && UIEbits.URSTIE)
  2223  00070A  B065               	btfsc	3941,0,c	;volatile
  2224  00070C  A064               	btfss	3940,0,c	;volatile
  2225  00070E  D005               	goto	l262
  2226                           
  2227                           ;usb_device.c: 671: {
  2228                           ;usb_device.c: 672: USBDeviceInit();
  2229  000710  EC0B  F004         	call	_USBDeviceInit	;wreg free
  2230                           
  2231                           ;usb_device.c: 676: ;
  2232                           ;usb_device.c: 678: USBDeviceState = DEFAULT_STATE;
  2233  000714  0E04               	movlw	4
  2234  000716  6E2C               	movwf	_USBDeviceState,c
  2235                           
  2236                           ;usb_device.c: 688: (UIR &= 0xFE);
  2237  000718  9065               	bcf	3941,0,c	;volatile
  2238  00071A                     l262:
  2239                           
  2240                           ;usb_device.c: 689: }
  2241                           ;usb_device.c: 694: if(UIRbits.IDLEIF && UIEbits.IDLEIE)
  2242  00071A  B865               	btfsc	3941,4,c	;volatile
  2243  00071C  A864               	btfss	3940,4,c	;volatile
  2244  00071E  D002               	goto	l263
  2245                           
  2246                           ;usb_device.c: 695: {
  2247                           ;usb_device.c: 701: USBSuspend();
  2248  000720  ECEE  F00D         	call	_USBSuspend	;wreg free
  2249  000724                     l263:
  2250                           
  2251                           ;usb_device.c: 703: }
  2252                           ;usb_device.c: 715: if(UIRbits.SOFIF)
  2253  000724  AC65               	btfss	3941,6,c	;volatile
  2254  000726  D01B               	goto	l267
  2255                           
  2256                           ;usb_device.c: 716: {
  2257                           ;usb_device.c: 718: if(UIEbits.SOFIE)
  2258  000728  AC64               	btfss	3940,6,c	;volatile
  2259  00072A  D00F               	goto	l265
  2260                           
  2261                           ;usb_device.c: 719: {
  2262                           ;usb_device.c: 720: USER_USB_CALLBACK_EVENT_HANDLER(EVENT_SOF,0,1);
  2263  00072C  0E00               	movlw	0
  2264  00072E  0100               	movlb	0	; () banked
  2265  000730  6FCA               	movwf	(USER_USB_CALLBACK_EVENT_HANDLER@event+1)& (0+255),b
  2266  000732  0E73               	movlw	115
  2267  000734  6FC9               	movwf	USER_USB_CALLBACK_EVENT_HANDLER@event& (0+255),b
  2268  000736  0E00               	movlw	0
  2269  000738  6FCB               	movwf	USER_USB_CALLBACK_EVENT_HANDLER@pdata& (0+255),b
  2270  00073A  0E00               	movlw	0
  2271  00073C  6FCC               	movwf	(USER_USB_CALLBACK_EVENT_HANDLER@pdata+1)& (0+255),b
  2272  00073E  0E00               	movlw	0
  2273  000740  6FCE               	movwf	(USER_USB_CALLBACK_EVENT_HANDLER@size+1)& (0+255),b
  2274  000742  0E01               	movlw	1
  2275  000744  6FCD               	movwf	USER_USB_CALLBACK_EVENT_HANDLER@size& (0+255),b
  2276  000746  EC9C  F00B         	call	_USER_USB_CALLBACK_EVENT_HANDLER	;wreg free
  2277  00074A                     l265:
  2278                           
  2279                           ;usb_device.c: 721: }
  2280                           ;usb_device.c: 722: (UIR &= 0xBF);
  2281  00074A  9C65               	bcf	3941,6,c	;volatile
  2282                           
  2283                           ;usb_device.c: 725: USBIncrement1msInternalTimers();
  2284  00074C  EC2B  F00E         	call	_USBIncrement1msInternalTimers	;wreg free
  2285                           
  2286                           ;usb_device.c: 742: if(USBStatusStageTimeoutCounter != 0u)
  2287  000750  5025               	movf	_USBStatusStageTimeoutCounter,w,c
  2288  000752  A4D8               	btfss	status,2,c
  2289                           
  2290                           ;usb_device.c: 743: {
  2291                           ;usb_device.c: 744: USBStatusStageTimeoutCounter--;
  2292  000754  0625               	decf	_USBStatusStageTimeoutCounter,f,c
  2293                           
  2294                           ;usb_device.c: 745: }
  2295                           ;usb_device.c: 751: if(USBStatusStageTimeoutCounter == 0)
  2296  000756  5025               	movf	_USBStatusStageTimeoutCounter,w,c
  2297  000758  B4D8               	btfsc	status,2,c
  2298                           
  2299                           ;usb_device.c: 752: {
  2300                           ;usb_device.c: 753: USBCtrlEPAllowStatusStage();
  2301  00075A  EC66  F009         	call	_USBCtrlEPAllowStatusStage	;wreg free
  2302  00075E                     l267:
  2303                           
  2304                           ;usb_device.c: 754: }
  2305                           ;usb_device.c: 756: }
  2306                           ;usb_device.c: 758: if(UIRbits.STALLIF && UIEbits.STALLIE)
  2307  00075E  BA65               	btfsc	3941,5,c	;volatile
  2308  000760  AA64               	btfss	3940,5,c	;volatile
  2309  000762  D002               	goto	l268
  2310                           
  2311                           ;usb_device.c: 759: {
  2312                           ;usb_device.c: 760: USBStallHandler();
  2313  000764  EC5E  F00D         	call	_USBStallHandler	;wreg free
  2314  000768                     l268:
  2315                           
  2316                           ;usb_device.c: 761: }
  2317                           ;usb_device.c: 763: if(UIRbits.UERRIF && UIEbits.UERRIE)
  2318  000768  B265               	btfsc	3941,1,c	;volatile
  2319  00076A  A264               	btfss	3940,1,c	;volatile
  2320  00076C  D010               	goto	l269
  2321                           
  2322                           ;usb_device.c: 764: {
  2323                           ;usb_device.c: 765: USER_USB_CALLBACK_EVENT_HANDLER(EVENT_BUS_ERROR,0,1);
  2324  00076E  0E7F               	movlw	127
  2325  000770  0100               	movlb	0	; () banked
  2326  000772  6FCA               	movwf	(USER_USB_CALLBACK_EVENT_HANDLER@event+1)& (0+255),b
  2327  000774  69C9               	setf	USER_USB_CALLBACK_EVENT_HANDLER@event& (0+255),b
  2328  000776  0E00               	movlw	0
  2329  000778  6FCB               	movwf	USER_USB_CALLBACK_EVENT_HANDLER@pdata& (0+255),b
  2330  00077A  0E00               	movlw	0
  2331  00077C  6FCC               	movwf	(USER_USB_CALLBACK_EVENT_HANDLER@pdata+1)& (0+255),b
  2332  00077E  0E00               	movlw	0
  2333  000780  6FCE               	movwf	(USER_USB_CALLBACK_EVENT_HANDLER@size+1)& (0+255),b
  2334  000782  0E01               	movlw	1
  2335  000784  6FCD               	movwf	USER_USB_CALLBACK_EVENT_HANDLER@size& (0+255),b
  2336  000786  EC9C  F00B         	call	_USER_USB_CALLBACK_EVENT_HANDLER	;wreg free
  2337                           
  2338                           ;usb_device.c: 766: {UEIR = 0;};
  2339  00078A  0E00               	movlw	0
  2340  00078C  6E67               	movwf	3943,c	;volatile
  2341  00078E                     l269:
  2342                           
  2343                           ;usb_device.c: 774: }
  2344                           ;usb_device.c: 781: if(USBDeviceState < DEFAULT_STATE)
  2345  00078E  0E04               	movlw	4
  2346  000790  602C               	cpfslt	_USBDeviceState,c
  2347  000792  D002               	goto	l270
  2348                           
  2349                           ;usb_device.c: 782: {
  2350                           ;usb_device.c: 783: PIR3bits.USBIF = 0;;
  2351  000794  94A4               	bcf	4004,2,c	;volatile
  2352                           
  2353                           ;usb_device.c: 784: return;
  2354  000796  0012               	return	
  2355  000798                     l270:
  2356                           
  2357                           ;usb_device.c: 785: }
  2358                           ;usb_device.c: 790: if(UIEbits.TRNIE)
  2359  000798  A664               	btfss	3940,3,c	;volatile
  2360  00079A  D03B               	goto	u5280
  2361                           
  2362                           ;usb_device.c: 791: {
  2363                           ;usb_device.c: 792: for(i = 0; i < 4u; i++)
  2364  00079C  0E00               	movlw	0
  2365  00079E  0100               	movlb	0	; () banked
  2366  0007A0  6FD7               	movwf	USBDeviceTasks@i& (0+255),b
  2367  0007A2                     l5375:
  2368                           
  2369                           ; BSR set to: 0
  2370  0007A2  0E03               	movlw	3
  2371  0007A4  65D7               	cpfsgt	USBDeviceTasks@i& (0+255),b
  2372  0007A6  D001               	goto	l272
  2373  0007A8  D034               	goto	u5280
  2374  0007AA                     l272:
  2375                           
  2376                           ; BSR set to: 0
  2377                           ;usb_device.c: 793: {
  2378                           ;usb_device.c: 794: if(UIRbits.TRNIF)
  2379  0007AA  A665               	btfss	3941,3,c	;volatile
  2380  0007AC  D032               	goto	u5280
  2381                           
  2382                           ; BSR set to: 0
  2383                           ;usb_device.c: 795: {
  2384                           ;usb_device.c: 797: USTATcopy.Val = USTAT;
  2385  0007AE  CF61 F02D          	movff	3937,_USTATcopy	;volatile
  2386                           
  2387                           ; BSR set to: 0
  2388                           ;usb_device.c: 798: endpoint_number = USTATcopy.endpoint_number;
  2389  0007B2  302D               	rrcf	_USTATcopy,w,c
  2390  0007B4  32E8               	rrcf	wreg,f,c
  2391  0007B6  32E8               	rrcf	wreg,f,c
  2392  0007B8  0B0F               	andlw	15
  2393  0007BA  6E27               	movwf	_endpoint_number,c
  2394                           
  2395                           ; BSR set to: 0
  2396                           ;usb_device.c: 800: (UIR &= 0xF7);
  2397  0007BC  9665               	bcf	3941,3,c	;volatile
  2398                           
  2399                           ; BSR set to: 0
  2400                           ;usb_device.c: 805: if(USTATcopy.direction == 0)
  2401  0007BE  B42D               	btfsc	_USTATcopy,2,c
  2402  0007C0  D007               	goto	l275
  2403                           
  2404                           ; BSR set to: 0
  2405                           ;usb_device.c: 806: {
  2406                           ;usb_device.c: 807: ep_data_out[endpoint_number].bits.ping_pong_state ^= 1;
  2407  0007C2  5027               	movf	_endpoint_number,w,c
  2408  0007C4  0D01               	mullw	1
  2409  0007C6  0E76               	movlw	low _ep_data_out
  2410  0007C8  24F3               	addwf	prodl,w,c
  2411  0007CA  6ED9               	movwf	fsr2l,c
  2412  0007CC  0E00               	movlw	high _ep_data_out
  2413  0007CE  D006               	goto	L1
  2414  0007D0                     l275:
  2415                           
  2416                           ; BSR set to: 0
  2417                           ;usb_device.c: 809: else
  2418                           ;usb_device.c: 810: {
  2419                           ;usb_device.c: 811: ep_data_in[endpoint_number].bits.ping_pong_state ^= 1;
  2420                           
  2421                           ; BSR set to: 0
  2422  0007D0  5027               	movf	_endpoint_number,w,c
  2423  0007D2  0D01               	mullw	1
  2424  0007D4  0E78               	movlw	low _ep_data_in
  2425  0007D6  24F3               	addwf	prodl,w,c
  2426  0007D8  6ED9               	movwf	fsr2l,c
  2427  0007DA  0E00               	movlw	high _ep_data_in
  2428  0007DC                     L1:
  2429  0007DC  20F4               	addwfc	prodh,w,c
  2430  0007DE  6EDA               	movwf	fsr2h,c
  2431  0007E0  70DF               	btg	indf2,0,c
  2432                           
  2433                           ; BSR set to: 0
  2434                           ;usb_device.c: 812: }
  2435                           ;usb_device.c: 817: if(endpoint_number == 0)
  2436                           
  2437                           ; BSR set to: 0
  2438  0007E2  5027               	movf	_endpoint_number,w,c
  2439  0007E4  A4D8               	btfss	status,2,c
  2440  0007E6  D003               	goto	l277
  2441                           
  2442                           ; BSR set to: 0
  2443                           ;usb_device.c: 818: {
  2444                           ;usb_device.c: 819: USBCtrlEPService();
  2445  0007E8  EC73  F00A         	call	_USBCtrlEPService	;wreg free
  2446                           
  2447                           ;usb_device.c: 820: }
  2448  0007EC  D00F               	goto	l279
  2449  0007EE                     l277:
  2450                           
  2451                           ;usb_device.c: 821: else
  2452                           ;usb_device.c: 822: {
  2453                           ;usb_device.c: 823: USER_USB_CALLBACK_EVENT_HANDLER(EVENT_TRANSFER,(uint8_t*)&USTATcopy.
      +                          Val,0);
  2454  0007EE  0E00               	movlw	0
  2455  0007F0  0100               	movlb	0	; () banked
  2456  0007F2  6FCA               	movwf	(USER_USB_CALLBACK_EVENT_HANDLER@event+1)& (0+255),b
  2457  0007F4  0E72               	movlw	114
  2458  0007F6  6FC9               	movwf	USER_USB_CALLBACK_EVENT_HANDLER@event& (0+255),b
  2459  0007F8  0E2D               	movlw	low _USTATcopy
  2460  0007FA  6FCB               	movwf	USER_USB_CALLBACK_EVENT_HANDLER@pdata& (0+255),b
  2461  0007FC  0E00               	movlw	high _USTATcopy
  2462  0007FE  6FCC               	movwf	(USER_USB_CALLBACK_EVENT_HANDLER@pdata+1)& (0+255),b
  2463  000800  0E00               	movlw	0
  2464  000802  6FCE               	movwf	(USER_USB_CALLBACK_EVENT_HANDLER@size+1)& (0+255),b
  2465  000804  0E00               	movlw	0
  2466  000806  6FCD               	movwf	USER_USB_CALLBACK_EVENT_HANDLER@size& (0+255),b
  2467  000808  EC9C  F00B         	call	_USER_USB_CALLBACK_EVENT_HANDLER	;wreg free
  2468  00080C                     l279:
  2469  00080C  0100               	movlb	0	; () banked
  2470  00080E  2BD7               	incf	USBDeviceTasks@i& (0+255),f,b
  2471  000810  D7C8               	goto	l5375
  2472  000812                     u5280:
  2473                           
  2474                           ;usb_device.c: 829: }
  2475                           ;usb_device.c: 830: }
  2476                           ;usb_device.c: 831: }
  2477                           ;usb_device.c: 833: PIR3bits.USBIF = 0;;
  2478                           
  2479                           ; BSR set to: 0
  2480  000812  94A4               	bcf	4004,2,c	;volatile
  2481  000814  0012               	return		;funcret
  2482  000816                     __end_of_USBDeviceTasks:
  2483                           	opt stack 0
  2484                           tblptru	equ	0xFF8
  2485                           tblptrh	equ	0xFF7
  2486                           tblptrl	equ	0xFF6
  2487                           tablat	equ	0xFF5
  2488                           prodh	equ	0xFF4
  2489                           prodl	equ	0xFF3
  2490                           postinc0	equ	0xFEE
  2491                           wreg	equ	0xFE8
  2492                           indf2	equ	0xFDF
  2493                           fsr2h	equ	0xFDA
  2494                           fsr2l	equ	0xFD9
  2495                           status	equ	0xFD8
  2496                           
  2497 ;; *************** function _USBWakeFromSuspend *****************
  2498 ;; Defined at:
  2499 ;;		line 2310 in file "../../../../../../framework/usb/src/usb_device.c"
  2500 ;; Parameters:    Size  Location     Type
  2501 ;;		None
  2502 ;; Auto vars:     Size  Location     Type
  2503 ;;		None
  2504 ;; Return value:  Size  Location     Type
  2505 ;;                  1    wreg      void 
  2506 ;; Registers used:
  2507 ;;		wreg, fsr2l, fsr2h, status,2, status,0, prodl, prodh, cstack
  2508 ;; Tracked objects:
  2509 ;;		On entry : 0/0
  2510 ;;		On exit  : 0/0
  2511 ;;		Unchanged: 0/0
  2512 ;; Data sizes:     COMRAM   BANK0   BANK1   BANK2   BANK3   BANK4   BANK5   BANK6   BANK7
  2513 ;;      Params:         0       0       0       0       0       0       0       0       0
  2514 ;;      Locals:         0       0       0       0       0       0       0       0       0
  2515 ;;      Temps:          0       0       0       0       0       0       0       0       0
  2516 ;;      Totals:         0       0       0       0       0       0       0       0       0
  2517 ;;Total ram usage:        0 bytes
  2518 ;; Hardware stack levels used:    1
  2519 ;; Hardware stack levels required when called:    5
  2520 ;; This function calls:
  2521 ;;		_USER_USB_CALLBACK_EVENT_HANDLER
  2522 ;; This function is called by:
  2523 ;;		_USBDeviceTasks
  2524 ;; This function uses a non-reentrant model
  2525 ;;
  2526                           
  2527                           	psect	text2
  2528  001BA8                     __ptext2:
  2529                           	opt stack 0
  2530  001BA8                     _USBWakeFromSuspend:
  2531                           	opt stack 24
  2532                           
  2533                           ;usb_device.c: 2312: USBBusIsSuspended = 0;
  2534                           
  2535                           ;incstack = 0
  2536  001BA8  0E00               	movlw	0
  2537  001BAA  6E28               	movwf	_USBBusIsSuspended,c
  2538                           
  2539                           ;usb_device.c: 2318: USER_USB_CALLBACK_EVENT_HANDLER(EVENT_RESUME,0,0);
  2540  001BAC  0E00               	movlw	0
  2541  001BAE  0100               	movlb	0	; () banked
  2542  001BB0  6FCA               	movwf	(USER_USB_CALLBACK_EVENT_HANDLER@event+1)& (0+255),b
  2543  001BB2  0E74               	movlw	116
  2544  001BB4  6FC9               	movwf	USER_USB_CALLBACK_EVENT_HANDLER@event& (0+255),b
  2545  001BB6  0E00               	movlw	0
  2546  001BB8  6FCB               	movwf	USER_USB_CALLBACK_EVENT_HANDLER@pdata& (0+255),b
  2547  001BBA  0E00               	movlw	0
  2548  001BBC  6FCC               	movwf	(USER_USB_CALLBACK_EVENT_HANDLER@pdata+1)& (0+255),b
  2549  001BBE  0E00               	movlw	0
  2550  001BC0  6FCE               	movwf	(USER_USB_CALLBACK_EVENT_HANDLER@size+1)& (0+255),b
  2551  001BC2  0E00               	movlw	0
  2552  001BC4  6FCD               	movwf	USER_USB_CALLBACK_EVENT_HANDLER@size& (0+255),b
  2553  001BC6  EC9C  F00B         	call	_USER_USB_CALLBACK_EVENT_HANDLER	;wreg free
  2554                           
  2555                           ;usb_device.c: 2325: UCONbits.SUSPND = 0;
  2556  001BCA  9260               	bcf	3936,1,c	;volatile
  2557                           
  2558                           ;usb_device.c: 2330: UIEbits.ACTVIE = 0;
  2559  001BCC  9464               	bcf	3940,2,c	;volatile
  2560                           
  2561                           ;usb_device.c: 2348: while(UIRbits.ACTVIF)
  2562  001BCE  D001               	goto	l407
  2563  001BD0                     
  2564                           ;usb_device.c: 2350: {
  2565                           ;usb_device.c: 2351: (UIR &= 0xFB);
  2566  001BD0  9465               	bcf	3941,2,c	;volatile
  2567  001BD2                     l407:
  2568  001BD2  B465               	btfsc	3941,2,c	;volatile
  2569  001BD4  D7FD               	goto	l408
  2570                           
  2571                           ;usb_device.c: 2352: }
  2572                           ;usb_device.c: 2354: USBTicksSinceSuspendEnd = 0;
  2573  001BD6  0E00               	movlw	0
  2574  001BD8  6E1F               	movwf	_USBTicksSinceSuspendEnd,c
  2575  001BDA  0012               	return		;funcret
  2576  001BDC                     __end_of_USBWakeFromSuspend:
  2577                           	opt stack 0
  2578                           tblptru	equ	0xFF8
  2579                           tblptrh	equ	0xFF7
  2580                           tblptrl	equ	0xFF6
  2581                           tablat	equ	0xFF5
  2582                           prodh	equ	0xFF4
  2583                           prodl	equ	0xFF3
  2584                           postinc0	equ	0xFEE
  2585                           wreg	equ	0xFE8
  2586                           indf2	equ	0xFDF
  2587                           fsr2h	equ	0xFDA
  2588                           fsr2l	equ	0xFD9
  2589                           status	equ	0xFD8
  2590                           
  2591 ;; *************** function _USBSuspend *****************
  2592 ;; Defined at:
  2593 ;;		line 2252 in file "../../../../../../framework/usb/src/usb_device.c"
  2594 ;; Parameters:    Size  Location     Type
  2595 ;;		None
  2596 ;; Auto vars:     Size  Location     Type
  2597 ;;		None
  2598 ;; Return value:  Size  Location     Type
  2599 ;;                  1    wreg      void 
  2600 ;; Registers used:
  2601 ;;		wreg, fsr2l, fsr2h, status,2, status,0, prodl, prodh, cstack
  2602 ;; Tracked objects:
  2603 ;;		On entry : 0/0
  2604 ;;		On exit  : 0/0
  2605 ;;		Unchanged: 0/0
  2606 ;; Data sizes:     COMRAM   BANK0   BANK1   BANK2   BANK3   BANK4   BANK5   BANK6   BANK7
  2607 ;;      Params:         0       0       0       0       0       0       0       0       0
  2608 ;;      Locals:         0       0       0       0       0       0       0       0       0
  2609 ;;      Temps:          0       0       0       0       0       0       0       0       0
  2610 ;;      Totals:         0       0       0       0       0       0       0       0       0
  2611 ;;Total ram usage:        0 bytes
  2612 ;; Hardware stack levels used:    1
  2613 ;; Hardware stack levels required when called:    5
  2614 ;; This function calls:
  2615 ;;		_USER_USB_CALLBACK_EVENT_HANDLER
  2616 ;; This function is called by:
  2617 ;;		_USBDeviceTasks
  2618 ;; This function uses a non-reentrant model
  2619 ;;
  2620                           
  2621                           	psect	text3
  2622  001BDC                     __ptext3:
  2623                           	opt stack 0
  2624  001BDC                     _USBSuspend:
  2625                           	opt stack 24
  2626                           
  2627                           ;usb_device.c: 2277: UIEbits.ACTVIE = 1;
  2628                           
  2629                           ;incstack = 0
  2630  001BDC  8464               	bsf	3940,2,c	;volatile
  2631                           
  2632                           ;usb_device.c: 2278: (UIR &= 0xEF);
  2633  001BDE  9865               	bcf	3941,4,c	;volatile
  2634                           
  2635                           ;usb_device.c: 2281: UCONbits.SUSPND = 1;
  2636  001BE0  8260               	bsf	3936,1,c	;volatile
  2637                           
  2638                           ;usb_device.c: 2284: USBBusIsSuspended = 1;
  2639  001BE2  0E01               	movlw	1
  2640  001BE4  6E28               	movwf	_USBBusIsSuspended,c
  2641                           
  2642                           ;usb_device.c: 2285: USBTicksSinceSuspendEnd = 0;
  2643  001BE6  0E00               	movlw	0
  2644  001BE8  6E1F               	movwf	_USBTicksSinceSuspendEnd,c
  2645                           
  2646                           ;usb_device.c: 2292: USER_USB_CALLBACK_EVENT_HANDLER(EVENT_SUSPEND,0,0);
  2647  001BEA  0E00               	movlw	0
  2648  001BEC  0100               	movlb	0	; () banked
  2649  001BEE  6FCA               	movwf	(USER_USB_CALLBACK_EVENT_HANDLER@event+1)& (0+255),b
  2650  001BF0  0E75               	movlw	117
  2651  001BF2  6FC9               	movwf	USER_USB_CALLBACK_EVENT_HANDLER@event& (0+255),b
  2652  001BF4  0E00               	movlw	0
  2653  001BF6  6FCB               	movwf	USER_USB_CALLBACK_EVENT_HANDLER@pdata& (0+255),b
  2654  001BF8  0E00               	movlw	0
  2655  001BFA  6FCC               	movwf	(USER_USB_CALLBACK_EVENT_HANDLER@pdata+1)& (0+255),b
  2656  001BFC  0E00               	movlw	0
  2657  001BFE  6FCE               	movwf	(USER_USB_CALLBACK_EVENT_HANDLER@size+1)& (0+255),b
  2658  001C00  0E00               	movlw	0
  2659  001C02  6FCD               	movwf	USER_USB_CALLBACK_EVENT_HANDLER@size& (0+255),b
  2660  001C04  EC9C  F00B         	call	_USER_USB_CALLBACK_EVENT_HANDLER	;wreg free
  2661  001C08  0012               	return		;funcret
  2662  001C0A                     __end_of_USBSuspend:
  2663                           	opt stack 0
  2664                           tblptru	equ	0xFF8
  2665                           tblptrh	equ	0xFF7
  2666                           tblptrl	equ	0xFF6
  2667                           tablat	equ	0xFF5
  2668                           prodh	equ	0xFF4
  2669                           prodl	equ	0xFF3
  2670                           postinc0	equ	0xFEE
  2671                           wreg	equ	0xFE8
  2672                           indf2	equ	0xFDF
  2673                           fsr2h	equ	0xFDA
  2674                           fsr2l	equ	0xFD9
  2675                           status	equ	0xFD8
  2676                           
  2677 ;; *************** function _USBStallHandler *****************
  2678 ;; Defined at:
  2679 ;;		line 2209 in file "../../../../../../framework/usb/src/usb_device.c"
  2680 ;; Parameters:    Size  Location     Type
  2681 ;;		None
  2682 ;; Auto vars:     Size  Location     Type
  2683 ;;		None
  2684 ;; Return value:  Size  Location     Type
  2685 ;;                  1    wreg      void 
  2686 ;; Registers used:
  2687 ;;		wreg, fsr2l, fsr2h, status,2, status,0
  2688 ;; Tracked objects:
  2689 ;;		On entry : 0/0
  2690 ;;		On exit  : 0/0
  2691 ;;		Unchanged: 0/0
  2692 ;; Data sizes:     COMRAM   BANK0   BANK1   BANK2   BANK3   BANK4   BANK5   BANK6   BANK7
  2693 ;;      Params:         0       0       0       0       0       0       0       0       0
  2694 ;;      Locals:         0       0       0       0       0       0       0       0       0
  2695 ;;      Temps:          1       0       0       0       0       0       0       0       0
  2696 ;;      Totals:         1       0       0       0       0       0       0       0       0
  2697 ;;Total ram usage:        1 bytes
  2698 ;; Hardware stack levels used:    1
  2699 ;; Hardware stack levels required when called:    1
  2700 ;; This function calls:
  2701 ;;		Nothing
  2702 ;; This function is called by:
  2703 ;;		_USBDeviceTasks
  2704 ;; This function uses a non-reentrant model
  2705 ;;
  2706                           
  2707                           	psect	text4
  2708  001ABC                     __ptext4:
  2709                           	opt stack 0
  2710  001ABC                     _USBStallHandler:
  2711                           	opt stack 28
  2712                           
  2713                           ;usb_device.c: 2221: if(UEP0bits.EPSTALL == 1)
  2714                           
  2715                           ;incstack = 0
  2716  001ABC  A06A               	btfss	3946,0,c	;volatile
  2717  001ABE  D01D               	goto	l399
  2718                           
  2719                           ;usb_device.c: 2222: {
  2720                           ;usb_device.c: 2224: if((pBDTEntryEP0OutCurrent->STAT.Val == 0x80) && (pBDTEntryIn[0]->S
      +                          TAT.Val == (0x80|0x04)))
  2721  001AC0  C019  FFD9         	movff	_pBDTEntryEP0OutCurrent,fsr2l
  2722  001AC4  C01A  FFDA         	movff	_pBDTEntryEP0OutCurrent+1,fsr2h
  2723  001AC8  0E80               	movlw	128
  2724  001ACA  18DE               	xorwf	postinc2,w,c
  2725  001ACC  A4D8               	btfss	status,2,c
  2726  001ACE  D014               	goto	l400
  2727  001AD0  C00F  FFD9         	movff	_pBDTEntryIn,fsr2l
  2728  001AD4  C010  FFDA         	movff	_pBDTEntryIn+1,fsr2h
  2729  001AD8  0E84               	movlw	132
  2730  001ADA  18DE               	xorwf	postinc2,w,c
  2731  001ADC  A4D8               	btfss	status,2,c
  2732  001ADE  D00C               	goto	l400
  2733                           
  2734                           ;usb_device.c: 2225: {
  2735                           ;usb_device.c: 2227: pBDTEntryEP0OutCurrent->STAT.Val = 0x00|(0x08 & 0x08)|0x04;
  2736  001AE0  C019  FFD9         	movff	_pBDTEntryEP0OutCurrent,fsr2l
  2737  001AE4  C01A  FFDA         	movff	_pBDTEntryEP0OutCurrent+1,fsr2h
  2738  001AE8  0E0C               	movlw	12
  2739  001AEA  6EDF               	movwf	indf2,c
  2740                           
  2741                           ;usb_device.c: 2228: pBDTEntryEP0OutCurrent->STAT.Val |= 0x80;
  2742  001AEC  C019  FFD9         	movff	_pBDTEntryEP0OutCurrent,fsr2l
  2743  001AF0  C01A  FFDA         	movff	_pBDTEntryEP0OutCurrent+1,fsr2h
  2744  001AF4  0E00               	movlw	0
  2745  001AF6  8EDB               	bsf	plusw2,7,c
  2746  001AF8                     l400:
  2747                           
  2748                           ;usb_device.c: 2229: }
  2749                           ;usb_device.c: 2230: UEP0bits.EPSTALL = 0;
  2750  001AF8  906A               	bcf	3946,0,c	;volatile
  2751  001AFA                     l399:
  2752                           
  2753                           ;usb_device.c: 2231: }
  2754                           ;usb_device.c: 2233: (UIR &= 0xDF);
  2755  001AFA  9A65               	bcf	3941,5,c	;volatile
  2756  001AFC  0012               	return		;funcret
  2757  001AFE                     __end_of_USBStallHandler:
  2758                           	opt stack 0
  2759                           tblptru	equ	0xFF8
  2760                           tblptrh	equ	0xFF7
  2761                           tblptrl	equ	0xFF6
  2762                           tablat	equ	0xFF5
  2763                           prodh	equ	0xFF4
  2764                           prodl	equ	0xFF3
  2765                           postinc0	equ	0xFEE
  2766                           wreg	equ	0xFE8
  2767                           indf2	equ	0xFDF
  2768                           postinc2	equ	0xFDE
  2769                           plusw2	equ	0xFDB
  2770                           fsr2h	equ	0xFDA
  2771                           fsr2l	equ	0xFD9
  2772                           status	equ	0xFD8
  2773                           
  2774 ;; *************** function _USBIncrement1msInternalTimers *****************
  2775 ;; Defined at:
  2776 ;;		line 3032 in file "../../../../../../framework/usb/src/usb_device.c"
  2777 ;; Parameters:    Size  Location     Type
  2778 ;;		None
  2779 ;; Auto vars:     Size  Location     Type
  2780 ;;		None
  2781 ;; Return value:  Size  Location     Type
  2782 ;;                  1    wreg      void 
  2783 ;; Registers used:
  2784 ;;		wreg, status,2, status,0
  2785 ;; Tracked objects:
  2786 ;;		On entry : 0/0
  2787 ;;		On exit  : 0/0
  2788 ;;		Unchanged: 0/0
  2789 ;; Data sizes:     COMRAM   BANK0   BANK1   BANK2   BANK3   BANK4   BANK5   BANK6   BANK7
  2790 ;;      Params:         0       0       0       0       0       0       0       0       0
  2791 ;;      Locals:         0       0       0       0       0       0       0       0       0
  2792 ;;      Temps:          0       0       0       0       0       0       0       0       0
  2793 ;;      Totals:         0       0       0       0       0       0       0       0       0
  2794 ;;Total ram usage:        0 bytes
  2795 ;; Hardware stack levels used:    1
  2796 ;; Hardware stack levels required when called:    1
  2797 ;; This function calls:
  2798 ;;		Nothing
  2799 ;; This function is called by:
  2800 ;;		_USBDeviceTasks
  2801 ;; This function uses a non-reentrant model
  2802 ;;
  2803                           
  2804                           	psect	text5
  2805  001C56                     __ptext5:
  2806                           	opt stack 0
  2807  001C56                     _USBIncrement1msInternalTimers:
  2808                           	opt stack 28
  2809                           
  2810                           ;usb_device.c: 3040: USB1msTickCount++;
  2811                           
  2812                           ;incstack = 0
  2813  001C56  0E01               	movlw	1
  2814  001C58  0100               	movlb	0	; () banked
  2815  001C5A  276C               	addwf	_USB1msTickCount& (0+255),f,b
  2816  001C5C  0E00               	movlw	0
  2817  001C5E  236D               	addwfc	(_USB1msTickCount+1)& (0+255),f,b
  2818  001C60  236E               	addwfc	(_USB1msTickCount+2)& (0+255),f,b
  2819  001C62  236F               	addwfc	(_USB1msTickCount+3)& (0+255),f,b
  2820                           
  2821                           ; BSR set to: 0
  2822                           ;usb_device.c: 3041: if(USBBusIsSuspended == 0)
  2823  001C64  5028               	movf	_USBBusIsSuspended,w,c
  2824  001C66  A4D8               	btfss	status,2,c
  2825  001C68  0012               	return	
  2826                           
  2827                           ; BSR set to: 0
  2828                           ;usb_device.c: 3042: {
  2829                           ;usb_device.c: 3043: USBTicksSinceSuspendEnd++;
  2830  001C6A  2A1F               	incf	_USBTicksSinceSuspendEnd,f,c
  2831                           
  2832                           ; BSR set to: 0
  2833                           ;usb_device.c: 3045: if(USBTicksSinceSuspendEnd == 0)
  2834  001C6C  501F               	movf	_USBTicksSinceSuspendEnd,w,c
  2835  001C6E  A4D8               	btfss	status,2,c
  2836  001C70  0012               	return	
  2837                           
  2838                           ; BSR set to: 0
  2839                           ;usb_device.c: 3046: {
  2840                           ;usb_device.c: 3047: USBTicksSinceSuspendEnd = 255;
  2841  001C72  681F               	setf	_USBTicksSinceSuspendEnd,c
  2842                           
  2843                           ; BSR set to: 0
  2844  001C74  0012               	return	
  2845  001C76                     __end_of_USBIncrement1msInternalTimers:
  2846                           	opt stack 0
  2847                           tblptru	equ	0xFF8
  2848                           tblptrh	equ	0xFF7
  2849                           tblptrl	equ	0xFF6
  2850                           tablat	equ	0xFF5
  2851                           prodh	equ	0xFF4
  2852                           prodl	equ	0xFF3
  2853                           postinc0	equ	0xFEE
  2854                           wreg	equ	0xFE8
  2855                           indf2	equ	0xFDF
  2856                           postinc2	equ	0xFDE
  2857                           plusw2	equ	0xFDB
  2858                           fsr2h	equ	0xFDA
  2859                           fsr2l	equ	0xFD9
  2860                           status	equ	0xFD8
  2861                           
  2862 ;; *************** function _USBDeviceInit *****************
  2863 ;; Defined at:
  2864 ;;		line 284 in file "../../../../../../framework/usb/src/usb_device.c"
  2865 ;; Parameters:    Size  Location     Type
  2866 ;;		None
  2867 ;; Auto vars:     Size  Location     Type
  2868 ;;  i               1   26[COMRAM] unsigned char 
  2869 ;; Return value:  Size  Location     Type
  2870 ;;                  1    wreg      void 
  2871 ;; Registers used:
  2872 ;;		wreg, fsr2l, fsr2h, status,2, status,0, prodl, prodh, cstack
  2873 ;; Tracked objects:
  2874 ;;		On entry : 0/0
  2875 ;;		On exit  : 0/0
  2876 ;;		Unchanged: 0/0
  2877 ;; Data sizes:     COMRAM   BANK0   BANK1   BANK2   BANK3   BANK4   BANK5   BANK6   BANK7
  2878 ;;      Params:         0       0       0       0       0       0       0       0       0
  2879 ;;      Locals:         1       0       0       0       0       0       0       0       0
  2880 ;;      Temps:          0       0       0       0       0       0       0       0       0
  2881 ;;      Totals:         1       0       0       0       0       0       0       0       0
  2882 ;;Total ram usage:        1 bytes
  2883 ;; Hardware stack levels used:    1
  2884 ;; Hardware stack levels required when called:    2
  2885 ;; This function calls:
  2886 ;;		_memset
  2887 ;; This function is called by:
  2888 ;;		_USBDeviceTasks
  2889 ;;		_main
  2890 ;; This function uses a non-reentrant model
  2891 ;;
  2892                           
  2893                           	psect	text6
  2894  000816                     __ptext6:
  2895                           	opt stack 0
  2896  000816                     _USBDeviceInit:
  2897                           	opt stack 27
  2898                           
  2899                           ;usb_device.c: 286: uint8_t i;
  2900                           ;usb_device.c: 288: {PIE3bits.USBIE = 0;};
  2901                           
  2902                           ; BSR set to: 0
  2903                           ;incstack = 0
  2904  000816  94A3               	bcf	4003,2,c	;volatile
  2905                           
  2906                           ;usb_device.c: 292: ;
  2907                           ;usb_device.c: 295: {UEIR = 0;};
  2908  000818  0E00               	movlw	0
  2909  00081A  6E67               	movwf	3943,c	;volatile
  2910                           
  2911                           ;usb_device.c: 298: {UIR = 0;};
  2912  00081C  0E00               	movlw	0
  2913  00081E  6E65               	movwf	3941,c	;volatile
  2914                           
  2915                           ;usb_device.c: 301: UEP0 = 0;
  2916  000820  0E00               	movlw	0
  2917  000822  6E6A               	movwf	3946,c	;volatile
  2918                           
  2919                           ;usb_device.c: 303: memset((void*)&UEP1,0x00,(1));;
  2920  000824  0E6B               	movlw	107
  2921  000826  6E42               	movwf	memset@p1,c
  2922  000828  0E0F               	movlw	15
  2923  00082A  6E43               	movwf	memset@p1+1,c
  2924  00082C  0E00               	movlw	0
  2925  00082E  6E45               	movwf	memset@c+1,c
  2926  000830  0E00               	movlw	0
  2927  000832  6E44               	movwf	memset@c,c
  2928  000834  0E00               	movlw	0
  2929  000836  6E47               	movwf	memset@n+1,c
  2930  000838  0E01               	movlw	1
  2931  00083A  6E46               	movwf	memset@n,c
  2932  00083C  EC05  F00E         	call	_memset	;wreg free
  2933                           
  2934                           ;usb_device.c: 305: { UCFG = 0x10 | 0x00 | 0x04 | 0x02; UEIE = 0x9F; UIE = 0x39 | 0x40 |
      +                           0x02; };
  2935  000840  0E16               	movlw	22
  2936  000842  6E62               	movwf	3938,c	;volatile
  2937  000844  0E9F               	movlw	159
  2938  000846  6E66               	movwf	3942,c	;volatile
  2939  000848  0E7B               	movlw	123
  2940  00084A  6E64               	movwf	3940,c	;volatile
  2941                           
  2942                           ;usb_device.c: 308: ;
  2943                           ;usb_device.c: 311: ;
  2944                           ;usb_device.c: 314: for(i = 0; i < (sizeof(BDT)/sizeof(BDT_ENTRY)); i++)
  2945  00084C  0E00               	movlw	0
  2946  00084E  6E4A               	movwf	USBDeviceInit@i,c
  2947  000850                     l5129:
  2948  000850  0E07               	movlw	7
  2949  000852  644A               	cpfsgt	USBDeviceInit@i,c
  2950  000854  D001               	goto	l243
  2951  000856  D00E               	goto	u4870
  2952  000858                     l243:
  2953                           
  2954                           ;usb_device.c: 315: {
  2955                           ;usb_device.c: 316: BDT[i].Val = 0x00;
  2956  000858  504A               	movf	USBDeviceInit@i,w,c
  2957  00085A  0D04               	mullw	4
  2958  00085C  0E00               	movlw	0
  2959  00085E  24F3               	addwf	prodl,w,c
  2960  000860  6ED9               	movwf	fsr2l,c
  2961  000862  0E04               	movlw	4
  2962  000864  20F4               	addwfc	prodh,w,c
  2963  000866  6EDA               	movwf	fsr2h,c
  2964  000868  6ADE               	clrf	postinc2,c
  2965  00086A  6ADE               	clrf	postinc2,c
  2966  00086C  6ADE               	clrf	postinc2,c
  2967  00086E  6ADD               	clrf	postdec2,c
  2968  000870  2A4A               	incf	USBDeviceInit@i,f,c
  2969  000872  D7EE               	goto	l5129
  2970  000874                     u4870:
  2971                           
  2972                           ;usb_device.c: 317: }
  2973                           ;usb_device.c: 320: UCONbits.PPBRST = 1;
  2974  000874  8C60               	bsf	3936,6,c	;volatile
  2975                           
  2976                           ;usb_device.c: 323: UADDR = 0x00;
  2977  000876  0E00               	movlw	0
  2978  000878  6E63               	movwf	3939,c	;volatile
  2979                           
  2980                           ;usb_device.c: 326: UCONbits.PKTDIS = 0;
  2981  00087A  9860               	bcf	3936,4,c	;volatile
  2982                           
  2983                           ;usb_device.c: 329: UCONbits.PPBRST = 0;
  2984  00087C  9C60               	bcf	3936,6,c	;volatile
  2985  00087E                     
  2986                           ;usb_device.c: 333: {
  2987                           ;usb_device.c: 334: (UIR &= 0xF7);
  2988  00087E  9665               	bcf	3941,3,c	;volatile
  2989                           
  2990                           ;usb_device.c: 336: inPipes[0].info.Val = 0;
  2991  000880  0E00               	movlw	0
  2992  000882  6E0C               	movwf	_inPipes+3,c
  2993                           
  2994                           ;usb_device.c: 337: outPipes[0].info.Val = 0;
  2995  000884  0E00               	movlw	0
  2996  000886  6E04               	movwf	_outPipes+3,c
  2997                           
  2998                           ;usb_device.c: 338: outPipes[0].wCount.Val = 0;
  2999  000888  0E00               	movlw	0
  3000  00088A  6E06               	movwf	_outPipes+5,c
  3001  00088C  0E00               	movlw	0
  3002  00088E  6E05               	movwf	_outPipes+4,c
  3003                           
  3004                           ;usb_device.c: 339: }while(UIRbits.TRNIF == 1);
  3005  000890  B665               	btfsc	3941,3,c	;volatile
  3006  000892  D7F5               	goto	l245
  3007                           
  3008                           ;usb_device.c: 343: USBStatusStageEnabledFlag1 = 1;
  3009  000894  0E01               	movlw	1
  3010  000896  6E23               	movwf	_USBStatusStageEnabledFlag1,c	;volatile
  3011                           
  3012                           ;usb_device.c: 344: USBStatusStageEnabledFlag2 = 1;
  3013  000898  0E01               	movlw	1
  3014  00089A  6E22               	movwf	_USBStatusStageEnabledFlag2,c	;volatile
  3015                           
  3016                           ;usb_device.c: 346: USBDeferINDataStagePackets = 0;
  3017  00089C  0E00               	movlw	0
  3018  00089E  6E21               	movwf	_USBDeferINDataStagePackets,c	;volatile
  3019                           
  3020                           ;usb_device.c: 347: USBDeferOUTDataStagePackets = 0;
  3021  0008A0  0E00               	movlw	0
  3022  0008A2  6E20               	movwf	_USBDeferOUTDataStagePackets,c	;volatile
  3023                           
  3024                           ;usb_device.c: 348: USBBusIsSuspended = 0;
  3025  0008A4  0E00               	movlw	0
  3026  0008A6  6E28               	movwf	_USBBusIsSuspended,c
  3027                           
  3028                           ;usb_device.c: 352: for(i = 0; i < (uint8_t)(1+1u); i++)
  3029  0008A8  0E00               	movlw	0
  3030  0008AA  6E4A               	movwf	USBDeviceInit@i,c
  3031  0008AC                     l5157:
  3032  0008AC  0E01               	movlw	1
  3033  0008AE  644A               	cpfsgt	USBDeviceInit@i,c
  3034  0008B0  D001               	goto	l247
  3035  0008B2  D02E               	goto	u4900
  3036  0008B4                     l247:
  3037                           
  3038                           ;usb_device.c: 353: {
  3039                           ;usb_device.c: 354: pBDTEntryIn[i] = 0u;
  3040  0008B4  504A               	movf	USBDeviceInit@i,w,c
  3041  0008B6  0D02               	mullw	2
  3042  0008B8  0E0F               	movlw	low _pBDTEntryIn
  3043  0008BA  24F3               	addwf	prodl,w,c
  3044  0008BC  6ED9               	movwf	fsr2l,c
  3045  0008BE  0E00               	movlw	high _pBDTEntryIn
  3046  0008C0  20F4               	addwfc	prodh,w,c
  3047  0008C2  6EDA               	movwf	fsr2h,c
  3048  0008C4  0E00               	movlw	0
  3049  0008C6  6EDE               	movwf	postinc2,c
  3050  0008C8  0E00               	movlw	0
  3051  0008CA  6EDD               	movwf	postdec2,c
  3052                           
  3053                           ;usb_device.c: 355: pBDTEntryOut[i] = 0u;
  3054  0008CC  504A               	movf	USBDeviceInit@i,w,c
  3055  0008CE  0D02               	mullw	2
  3056  0008D0  0E70               	movlw	low _pBDTEntryOut
  3057  0008D2  24F3               	addwf	prodl,w,c
  3058  0008D4  6ED9               	movwf	fsr2l,c
  3059  0008D6  0E00               	movlw	high _pBDTEntryOut
  3060  0008D8  20F4               	addwfc	prodh,w,c
  3061  0008DA  6EDA               	movwf	fsr2h,c
  3062  0008DC  0E00               	movlw	0
  3063  0008DE  6EDE               	movwf	postinc2,c
  3064  0008E0  0E00               	movlw	0
  3065  0008E2  6EDD               	movwf	postdec2,c
  3066                           
  3067                           ;usb_device.c: 356: ep_data_in[i].Val = 0u;
  3068  0008E4  504A               	movf	USBDeviceInit@i,w,c
  3069  0008E6  0D01               	mullw	1
  3070  0008E8  0E78               	movlw	low _ep_data_in
  3071  0008EA  24F3               	addwf	prodl,w,c
  3072  0008EC  6ED9               	movwf	fsr2l,c
  3073  0008EE  0E00               	movlw	high _ep_data_in
  3074  0008F0  20F4               	addwfc	prodh,w,c
  3075  0008F2  6EDA               	movwf	fsr2h,c
  3076  0008F4  0E00               	movlw	0
  3077  0008F6  6EDF               	movwf	indf2,c
  3078                           
  3079                           ;usb_device.c: 357: ep_data_out[i].Val = 0u;
  3080  0008F8  504A               	movf	USBDeviceInit@i,w,c
  3081  0008FA  0D01               	mullw	1
  3082  0008FC  0E76               	movlw	low _ep_data_out
  3083  0008FE  24F3               	addwf	prodl,w,c
  3084  000900  6ED9               	movwf	fsr2l,c
  3085  000902  0E00               	movlw	high _ep_data_out
  3086  000904  20F4               	addwfc	prodh,w,c
  3087  000906  6EDA               	movwf	fsr2h,c
  3088  000908  0E00               	movlw	0
  3089  00090A  6EDF               	movwf	indf2,c
  3090  00090C  2A4A               	incf	USBDeviceInit@i,f,c
  3091  00090E  D7CE               	goto	l5157
  3092  000910                     u4900:
  3093                           
  3094                           ;usb_device.c: 358: }
  3095                           ;usb_device.c: 361: pBDTEntryIn[0] = (volatile BDT_ENTRY*)&BDT[2];
  3096  000910  0E08               	movlw	8
  3097  000912  6E0F               	movwf	_pBDTEntryIn,c
  3098  000914  0E04               	movlw	4
  3099  000916  6E10               	movwf	_pBDTEntryIn+1,c
  3100                           
  3101                           ;usb_device.c: 363: UEP0 = 0x06|0x10;
  3102  000918  0E16               	movlw	22
  3103  00091A  6E6A               	movwf	3946,c	;volatile
  3104                           
  3105                           ;usb_device.c: 365: BDT[0].ADR = ((uint16_t)(&SetupPkt));
  3106  00091C  0E04               	movlw	4
  3107  00091E  0104               	movlb	4	; () banked
  3108  000920  6F03               	movwf	3,b	;volatile
  3109  000922  0E20               	movlw	32
  3110  000924  6F02               	movwf	2,b	;volatile
  3111                           
  3112                           ; BSR set to: 4
  3113                           ;usb_device.c: 366: BDT[0].CNT = 8;
  3114  000926  0E08               	movlw	8
  3115  000928  6F01               	movwf	1,b	;volatile
  3116                           
  3117                           ; BSR set to: 4
  3118                           ;usb_device.c: 367: BDT[0].STAT.Val = 0x00|0x04;
  3119  00092A  0E04               	movlw	4
  3120  00092C  6F00               	movwf	0,b	;volatile
  3121                           
  3122                           ; BSR set to: 4
  3123                           ;usb_device.c: 368: BDT[0].STAT.Val |= 0x80;
  3124  00092E  8F00               	bsf	0,7,b	;volatile
  3125                           
  3126                           ; BSR set to: 4
  3127                           ;usb_device.c: 371: USBActiveConfiguration = 0;
  3128  000930  0E00               	movlw	0
  3129  000932  6E2F               	movwf	_USBActiveConfiguration,c
  3130                           
  3131                           ; BSR set to: 4
  3132                           ;usb_device.c: 373: USB1msTickCount = 0;
  3133  000934  0E00               	movlw	0
  3134  000936  0100               	movlb	0	; () banked
  3135  000938  6F6C               	movwf	_USB1msTickCount& (0+255),b
  3136  00093A  0E00               	movlw	0
  3137  00093C  6F6D               	movwf	(_USB1msTickCount+1)& (0+255),b
  3138  00093E  0E00               	movlw	0
  3139  000940  6F6E               	movwf	(_USB1msTickCount+2)& (0+255),b
  3140  000942  0E00               	movlw	0
  3141  000944  6F6F               	movwf	(_USB1msTickCount+3)& (0+255),b
  3142                           
  3143                           ; BSR set to: 0
  3144                           ;usb_device.c: 374: USBTicksSinceSuspendEnd = 0;
  3145  000946  0E00               	movlw	0
  3146  000948  6E1F               	movwf	_USBTicksSinceSuspendEnd,c
  3147                           
  3148                           ; BSR set to: 0
  3149                           ;usb_device.c: 377: USBDeviceState = DETACHED_STATE;
  3150  00094A  0E00               	movlw	0
  3151  00094C  6E2C               	movwf	_USBDeviceState,c
  3152                           
  3153                           ; BSR set to: 0
  3154  00094E  0012               	return		;funcret
  3155  000950                     __end_of_USBDeviceInit:
  3156                           	opt stack 0
  3157                           tblptru	equ	0xFF8
  3158                           tblptrh	equ	0xFF7
  3159                           tblptrl	equ	0xFF6
  3160                           tablat	equ	0xFF5
  3161                           prodh	equ	0xFF4
  3162                           prodl	equ	0xFF3
  3163                           postinc0	equ	0xFEE
  3164                           wreg	equ	0xFE8
  3165                           indf2	equ	0xFDF
  3166                           postinc2	equ	0xFDE
  3167                           postdec2	equ	0xFDD
  3168                           plusw2	equ	0xFDB
  3169                           fsr2h	equ	0xFDA
  3170                           fsr2l	equ	0xFD9
  3171                           status	equ	0xFD8
  3172                           
  3173 ;; *************** function _USBCtrlEPService *****************
  3174 ;; Defined at:
  3175 ;;		line 2379 in file "../../../../../../framework/usb/src/usb_device.c"
  3176 ;; Parameters:    Size  Location     Type
  3177 ;;		None
  3178 ;; Auto vars:     Size  Location     Type
  3179 ;;		None
  3180 ;; Return value:  Size  Location     Type
  3181 ;;                  1    wreg      void 
  3182 ;; Registers used:
  3183 ;;		wreg, fsr0l, fsr0h, fsr1l, fsr1h, fsr2l, fsr2h, status,2, status,0, pclath, tosl, tblptrl, tblptrh, tblptru, prodl, 
      +prodh, cstack
  3184 ;; Tracked objects:
  3185 ;;		On entry : 0/0
  3186 ;;		On exit  : 0/0
  3187 ;;		Unchanged: 0/0
  3188 ;; Data sizes:     COMRAM   BANK0   BANK1   BANK2   BANK3   BANK4   BANK5   BANK6   BANK7
  3189 ;;      Params:         0       0       0       0       0       0       0       0       0
  3190 ;;      Locals:         0       0       0       0       0       0       0       0       0
  3191 ;;      Temps:          0       1       0       0       0       0       0       0       0
  3192 ;;      Totals:         0       1       0       0       0       0       0       0       0
  3193 ;;Total ram usage:        1 bytes
  3194 ;; Hardware stack levels used:    1
  3195 ;; Hardware stack levels required when called:    8
  3196 ;; This function calls:
  3197 ;;		_USBCtrlTrfInHandler
  3198 ;;		_USBCtrlTrfOutHandler
  3199 ;;		_USBCtrlTrfSetupHandler
  3200 ;;		_memcpy
  3201 ;; This function is called by:
  3202 ;;		_USBDeviceTasks
  3203 ;; This function uses a non-reentrant model
  3204 ;;
  3205                           
  3206                           	psect	text7
  3207  0014E6                     __ptext7:
  3208                           	opt stack 0
  3209  0014E6                     _USBCtrlEPService:
  3210                           	opt stack 21
  3211                           
  3212                           ;usb_device.c: 2385: USBStatusStageTimeoutCounter = (uint8_t)45;
  3213                           
  3214                           ; BSR set to: 0
  3215                           ;incstack = 0
  3216  0014E6  0E2D               	movlw	45
  3217  0014E8  6E25               	movwf	_USBStatusStageTimeoutCounter,c
  3218                           
  3219                           ;usb_device.c: 2389: if((USTATcopy.Val & ~0x02) == 0x00)
  3220  0014EA  C02D  F0D6         	movff	_USTATcopy,??_USBCtrlEPService
  3221  0014EE  0EFD               	movlw	253
  3222  0014F0  0100               	movlb	0	; () banked
  3223  0014F2  17D6               	andwf	??_USBCtrlEPService& (0+255),f,b
  3224  0014F4  A4D8               	btfss	status,2,c
  3225  0014F6  D03B               	goto	l413
  3226                           
  3227                           ; BSR set to: 0
  3228                           ;usb_device.c: 2390: {
  3229                           ;usb_device.c: 2393: pBDTEntryEP0OutCurrent = (volatile BDT_ENTRY*)&BDT[(USTATcopy.Val &
      +                           0x7E)>>1];
  3230  0014F8  C02D  F0D6         	movff	_USTATcopy,??_USBCtrlEPService
  3231  0014FC  90D8               	bcf	status,0,c
  3232  0014FE  33D6               	rrcf	??_USBCtrlEPService& (0+255),f,b
  3233  001500  0E3F               	movlw	63
  3234  001502  17D6               	andwf	??_USBCtrlEPService& (0+255),f,b
  3235  001504  51D6               	movf	??_USBCtrlEPService& (0+255),w,b
  3236  001506  0D04               	mullw	4
  3237  001508  0E00               	movlw	0
  3238  00150A  24F3               	addwf	prodl,w,c
  3239  00150C  6E19               	movwf	_pBDTEntryEP0OutCurrent,c
  3240  00150E  0E04               	movlw	4
  3241  001510  20F4               	addwfc	prodh,w,c
  3242  001512  6E1A               	movwf	_pBDTEntryEP0OutCurrent+1,c
  3243                           
  3244                           ; BSR set to: 0
  3245                           ;usb_device.c: 2401: pBDTEntryEP0OutNext = pBDTEntryEP0OutCurrent;
  3246  001514  C019  F017         	movff	_pBDTEntryEP0OutCurrent,_pBDTEntryEP0OutNext
  3247  001518  C01A  F018         	movff	_pBDTEntryEP0OutCurrent+1,_pBDTEntryEP0OutNext+1
  3248                           
  3249                           ; BSR set to: 0
  3250                           ;usb_device.c: 2403: pBDTEntryEP0OutNext = (volatile BDT_ENTRY*)(((uintptr_t)pBDTEntryEP
      +                          0OutNext) ^ 0x0004);
  3251  00151C  0E04               	movlw	4
  3252  00151E  1817               	xorwf	_pBDTEntryEP0OutNext,w,c
  3253  001520  6E17               	movwf	_pBDTEntryEP0OutNext,c
  3254  001522  5018               	movf	_pBDTEntryEP0OutNext+1,w,c
  3255  001524  6E18               	movwf	_pBDTEntryEP0OutNext+1,c
  3256                           
  3257                           ; BSR set to: 0
  3258                           ;usb_device.c: 2406: if(pBDTEntryEP0OutCurrent->STAT.PID == 0xD)
  3259  001526  C019  FFD9         	movff	_pBDTEntryEP0OutCurrent,fsr2l
  3260  00152A  C01A  FFDA         	movff	_pBDTEntryEP0OutCurrent+1,fsr2h
  3261  00152E  30DF               	rrcf	indf2,w,c
  3262  001530  32E8               	rrcf	wreg,f,c
  3263  001532  0B0F               	andlw	15
  3264  001534  0A0D               	xorlw	13
  3265  001536  A4D8               	btfss	status,2,c
  3266  001538  D017               	goto	l414
  3267                           
  3268                           ; BSR set to: 0
  3269                           ;usb_device.c: 2407: {
  3270                           ;usb_device.c: 2412: memcpy((uint8_t*)&SetupPkt, (uint8_t*)((void *)(pBDTEntryEP0OutCurr
      +                          ent->ADR)), 8);
  3271  00153A  0E20               	movlw	32
  3272  00153C  6E42               	movwf	memcpy@d1,c
  3273  00153E  0E04               	movlw	4
  3274  001540  6E43               	movwf	memcpy@d1+1,c
  3275  001542  EE20 F002          	lfsr	2,2
  3276  001546  5019               	movf	_pBDTEntryEP0OutCurrent,w,c
  3277  001548  26D9               	addwf	fsr2l,f,c
  3278  00154A  501A               	movf	_pBDTEntryEP0OutCurrent+1,w,c
  3279  00154C  22DA               	addwfc	fsr2h,f,c
  3280  00154E  CFDE F044          	movff	postinc2,memcpy@s1
  3281  001552  CFDD F045          	movff	postdec2,memcpy@s1+1
  3282  001556  0E00               	movlw	0
  3283  001558  6E47               	movwf	memcpy@n+1,c
  3284  00155A  0E08               	movlw	8
  3285  00155C  6E46               	movwf	memcpy@n,c
  3286  00155E  ECD4  F00C         	call	_memcpy	;wreg free
  3287                           
  3288                           ;usb_device.c: 2415: USBCtrlTrfSetupHandler();
  3289  001562  EC54  F00B         	call	_USBCtrlTrfSetupHandler	;wreg free
  3290                           
  3291                           ;usb_device.c: 2416: }
  3292  001566  0012               	return	
  3293  001568                     l414:
  3294                           
  3295                           ;usb_device.c: 2417: else
  3296                           ;usb_device.c: 2418: {
  3297                           ;usb_device.c: 2420: USBCtrlTrfOutHandler();
  3298  001568  EC54  F00C         	call	_USBCtrlTrfOutHandler	;wreg free
  3299                           
  3300                           ;usb_device.c: 2421: }
  3301                           ;usb_device.c: 2422: }
  3302  00156C  0012               	return	
  3303  00156E                     l413:
  3304                           
  3305                           ;usb_device.c: 2423: else if((USTATcopy.Val & ~0x02) == 0x04)
  3306  00156E  502D               	movf	_USTATcopy,w,c
  3307  001570  0BFD               	andlw	253
  3308  001572  0A04               	xorlw	4
  3309  001574  A4D8               	btfss	status,2,c
  3310  001576  0012               	return	
  3311                           
  3312                           ;usb_device.c: 2424: {
  3313                           ;usb_device.c: 2427: USBCtrlTrfInHandler();
  3314  001578  EC48  F007         	call	_USBCtrlTrfInHandler	;wreg free
  3315  00157C  0012               	return	
  3316  00157E                     __end_of_USBCtrlEPService:
  3317                           	opt stack 0
  3318                           tblptru	equ	0xFF8
  3319                           tblptrh	equ	0xFF7
  3320                           tblptrl	equ	0xFF6
  3321                           tablat	equ	0xFF5
  3322                           prodh	equ	0xFF4
  3323                           prodl	equ	0xFF3
  3324                           postinc0	equ	0xFEE
  3325                           wreg	equ	0xFE8
  3326                           indf2	equ	0xFDF
  3327                           postinc2	equ	0xFDE
  3328                           postdec2	equ	0xFDD
  3329                           plusw2	equ	0xFDB
  3330                           fsr2h	equ	0xFDA
  3331                           fsr2l	equ	0xFD9
  3332                           status	equ	0xFD8
  3333                           
  3334 ;; *************** function _memcpy *****************
  3335 ;; Defined at:
  3336 ;;		line 27 in file "C:\Program Files (x86)\Microchip\xc8\v1.45\sources\common\memcpy.c"
  3337 ;; Parameters:    Size  Location     Type
  3338 ;;  d1              2   18[COMRAM] PTR void 
  3339 ;;		 -> SetupPkt(8), 
  3340 ;;  s1              2   20[COMRAM] PTR const void 
  3341 ;;		 -> CtrlTrfData(8), RAM(2047), SetupPkt(8), 
  3342 ;;  n               2   22[COMRAM] unsigned int 
  3343 ;; Auto vars:     Size  Location     Type
  3344 ;;  s               2    3[BANK0 ] PTR const unsigned char 
  3345 ;;		 -> CtrlTrfData(8), RAM(2047), SetupPkt(8), 
  3346 ;;  d               2    1[BANK0 ] PTR unsigned char 
  3347 ;;		 -> SetupPkt(8), 
  3348 ;;  tmp             1    0[BANK0 ] unsigned char 
  3349 ;; Return value:  Size  Location     Type
  3350 ;;                  2   18[COMRAM] PTR void 
  3351 ;; Registers used:
  3352 ;;		wreg, fsr2l, fsr2h, status,2, status,0
  3353 ;; Tracked objects:
  3354 ;;		On entry : 0/0
  3355 ;;		On exit  : 0/0
  3356 ;;		Unchanged: 0/0
  3357 ;; Data sizes:     COMRAM   BANK0   BANK1   BANK2   BANK3   BANK4   BANK5   BANK6   BANK7
  3358 ;;      Params:         6       0       0       0       0       0       0       0       0
  3359 ;;      Locals:         0       5       0       0       0       0       0       0       0
  3360 ;;      Temps:          0       0       0       0       0       0       0       0       0
  3361 ;;      Totals:         6       5       0       0       0       0       0       0       0
  3362 ;;Total ram usage:       11 bytes
  3363 ;; Hardware stack levels used:    1
  3364 ;; Hardware stack levels required when called:    1
  3365 ;; This function calls:
  3366 ;;		Nothing
  3367 ;; This function is called by:
  3368 ;;		_USBCtrlEPService
  3369 ;; This function uses a non-reentrant model
  3370 ;;
  3371                           
  3372                           	psect	text8
  3373  0019A8                     __ptext8:
  3374                           	opt stack 0
  3375  0019A8                     _memcpy:
  3376                           	opt stack 27
  3377                           
  3378                           ;incstack = 0
  3379  0019A8  C044  F0C9         	movff	memcpy@s1,memcpy@s
  3380  0019AC  C045  F0CA         	movff	memcpy@s1+1,memcpy@s+1
  3381  0019B0  C042  F0C7         	movff	memcpy@d1,memcpy@d
  3382  0019B4  C043  F0C8         	movff	memcpy@d1+1,memcpy@d+1
  3383  0019B8  D011               	goto	l1323
  3384  0019BA                     l5021:
  3385  0019BA  C0C9  FFD9         	movff	memcpy@s,fsr2l
  3386  0019BE  C0CA  FFDA         	movff	memcpy@s+1,fsr2h
  3387  0019C2  50DF               	movf	indf2,w,c
  3388  0019C4  0100               	movlb	0	; () banked
  3389  0019C6  6FC6               	movwf	memcpy@tmp& (0+255),b
  3390                           
  3391                           ; BSR set to: 0
  3392  0019C8  4BC9               	infsnz	memcpy@s& (0+255),f,b
  3393  0019CA  2BCA               	incf	(memcpy@s+1)& (0+255),f,b
  3394                           
  3395                           ; BSR set to: 0
  3396  0019CC  C0C7  FFD9         	movff	memcpy@d,fsr2l
  3397  0019D0  C0C8  FFDA         	movff	memcpy@d+1,fsr2h
  3398  0019D4  C0C6  FFDF         	movff	memcpy@tmp,indf2
  3399                           
  3400                           ; BSR set to: 0
  3401  0019D8  4BC7               	infsnz	memcpy@d& (0+255),f,b
  3402  0019DA  2BC8               	incf	(memcpy@d+1)& (0+255),f,b
  3403  0019DC                     l1323:
  3404                           
  3405                           ; BSR set to: 0
  3406  0019DC  0646               	decf	memcpy@n,f,c
  3407  0019DE  A0D8               	btfss	status,0,c
  3408  0019E0  0647               	decf	memcpy@n+1,f,c
  3409  0019E2  2846               	incf	memcpy@n,w,c
  3410  0019E4  E1EA               	bnz	l5021
  3411  0019E6  2847               	incf	memcpy@n+1,w,c
  3412  0019E8  B4D8               	btfsc	status,2,c
  3413  0019EA  0012               	return	
  3414  0019EC  D7E6               	goto	l1324
  3415  0019EE                     __end_of_memcpy:
  3416                           	opt stack 0
  3417                           tblptru	equ	0xFF8
  3418                           tblptrh	equ	0xFF7
  3419                           tblptrl	equ	0xFF6
  3420                           tablat	equ	0xFF5
  3421                           prodh	equ	0xFF4
  3422                           prodl	equ	0xFF3
  3423                           postinc0	equ	0xFEE
  3424                           wreg	equ	0xFE8
  3425                           indf2	equ	0xFDF
  3426                           postinc2	equ	0xFDE
  3427                           postdec2	equ	0xFDD
  3428                           plusw2	equ	0xFDB
  3429                           fsr2h	equ	0xFDA
  3430                           fsr2l	equ	0xFD9
  3431                           status	equ	0xFD8
  3432                           
  3433 ;; *************** function _USBCtrlTrfSetupHandler *****************
  3434 ;; Defined at:
  3435 ;;		line 2472 in file "../../../../../../framework/usb/src/usb_device.c"
  3436 ;; Parameters:    Size  Location     Type
  3437 ;;		None
  3438 ;; Auto vars:     Size  Location     Type
  3439 ;;		None
  3440 ;; Return value:  Size  Location     Type
  3441 ;;                  1    wreg      void 
  3442 ;; Registers used:
  3443 ;;		wreg, fsr0l, fsr0h, fsr2l, fsr2h, status,2, status,0, tblptrl, tblptrh, tblptru, prodl, prodh, cstack
  3444 ;; Tracked objects:
  3445 ;;		On entry : 0/0
  3446 ;;		On exit  : 0/0
  3447 ;;		Unchanged: 0/0
  3448 ;; Data sizes:     COMRAM   BANK0   BANK1   BANK2   BANK3   BANK4   BANK5   BANK6   BANK7
  3449 ;;      Params:         0       0       0       0       0       0       0       0       0
  3450 ;;      Locals:         0       0       0       0       0       0       0       0       0
  3451 ;;      Temps:          0       0       0       0       0       0       0       0       0
  3452 ;;      Totals:         0       0       0       0       0       0       0       0       0
  3453 ;;Total ram usage:        0 bytes
  3454 ;; Hardware stack levels used:    1
  3455 ;; Hardware stack levels required when called:    7
  3456 ;; This function calls:
  3457 ;;		_USBCheckStdRequest
  3458 ;;		_USBCtrlEPServiceComplete
  3459 ;;		_USER_USB_CALLBACK_EVENT_HANDLER
  3460 ;; This function is called by:
  3461 ;;		_USBCtrlEPService
  3462 ;; This function uses a non-reentrant model
  3463 ;;
  3464                           
  3465                           	psect	text9
  3466  0016A8                     __ptext9:
  3467                           	opt stack 0
  3468  0016A8                     _USBCtrlTrfSetupHandler:
  3469                           	opt stack 21
  3470                           
  3471                           ;usb_device.c: 2477: shortPacketStatus = 0;
  3472                           
  3473                           ;incstack = 0
  3474  0016A8  0E00               	movlw	0
  3475  0016AA  6E2B               	movwf	_shortPacketStatus,c
  3476                           
  3477                           ;usb_device.c: 2478: USBDeferStatusStagePacket = 0;
  3478  0016AC  0E00               	movlw	0
  3479  0016AE  6E24               	movwf	_USBDeferStatusStagePacket,c	;volatile
  3480                           
  3481                           ;usb_device.c: 2479: USBDeferINDataStagePackets = 0;
  3482  0016B0  0E00               	movlw	0
  3483  0016B2  6E21               	movwf	_USBDeferINDataStagePackets,c	;volatile
  3484                           
  3485                           ;usb_device.c: 2480: USBDeferOUTDataStagePackets = 0;
  3486  0016B4  0E00               	movlw	0
  3487  0016B6  6E20               	movwf	_USBDeferOUTDataStagePackets,c	;volatile
  3488                           
  3489                           ;usb_device.c: 2481: BothEP0OutUOWNsSet = 0;
  3490  0016B8  0E00               	movlw	0
  3491  0016BA  6E26               	movwf	_BothEP0OutUOWNsSet,c
  3492                           
  3493                           ;usb_device.c: 2482: controlTransferState = 0;
  3494  0016BC  0E00               	movlw	0
  3495  0016BE  6E2A               	movwf	_controlTransferState,c
  3496                           
  3497                           ;usb_device.c: 2491: pBDTEntryIn[0]->STAT.Val &= ~(0x80);
  3498  0016C0  C00F  FFD9         	movff	_pBDTEntryIn,fsr2l
  3499  0016C4  C010  FFDA         	movff	_pBDTEntryIn+1,fsr2h
  3500  0016C8  0E7F               	movlw	127
  3501  0016CA  16DF               	andwf	indf2,f,c
  3502                           
  3503                           ;usb_device.c: 2493: pBDTEntryIn[0] = (volatile BDT_ENTRY*)(((uintptr_t)pBDTEntryIn[0]) 
      +                          ^ 0x0004);
  3504  0016CC  0E04               	movlw	4
  3505  0016CE  180F               	xorwf	_pBDTEntryIn,w,c
  3506  0016D0  6E0F               	movwf	_pBDTEntryIn,c
  3507  0016D2  5010               	movf	_pBDTEntryIn+1,w,c
  3508  0016D4  6E10               	movwf	_pBDTEntryIn+1,c
  3509                           
  3510                           ;usb_device.c: 2494: pBDTEntryIn[0]->STAT.Val &= ~(0x80);
  3511  0016D6  C00F  FFD9         	movff	_pBDTEntryIn,fsr2l
  3512  0016DA  C010  FFDA         	movff	_pBDTEntryIn+1,fsr2h
  3513  0016DE  0E7F               	movlw	127
  3514  0016E0  16DF               	andwf	indf2,f,c
  3515                           
  3516                           ;usb_device.c: 2495: pBDTEntryIn[0] = (volatile BDT_ENTRY*)(((uintptr_t)pBDTEntryIn[0]) 
      +                          ^ 0x0004);
  3517  0016E2  0E04               	movlw	4
  3518  0016E4  180F               	xorwf	_pBDTEntryIn,w,c
  3519  0016E6  6E0F               	movwf	_pBDTEntryIn,c
  3520  0016E8  5010               	movf	_pBDTEntryIn+1,w,c
  3521  0016EA  6E10               	movwf	_pBDTEntryIn+1,c
  3522                           
  3523                           ;usb_device.c: 2496: pBDTEntryEP0OutNext->STAT.Val &= ~(0x80);
  3524  0016EC  C017  FFD9         	movff	_pBDTEntryEP0OutNext,fsr2l
  3525  0016F0  C018  FFDA         	movff	_pBDTEntryEP0OutNext+1,fsr2h
  3526  0016F4  0E7F               	movlw	127
  3527  0016F6  16DF               	andwf	indf2,f,c
  3528                           
  3529                           ;usb_device.c: 2498: inPipes[0].info.Val = 0;
  3530  0016F8  0E00               	movlw	0
  3531  0016FA  6E0C               	movwf	_inPipes+3,c
  3532                           
  3533                           ;usb_device.c: 2499: inPipes[0].wCount.Val = 0;
  3534  0016FC  0E00               	movlw	0
  3535  0016FE  6E0E               	movwf	_inPipes+5,c
  3536  001700  0E00               	movlw	0
  3537  001702  6E0D               	movwf	_inPipes+4,c
  3538                           
  3539                           ;usb_device.c: 2500: outPipes[0].info.Val = 0;
  3540  001704  0E00               	movlw	0
  3541  001706  6E04               	movwf	_outPipes+3,c
  3542                           
  3543                           ;usb_device.c: 2501: outPipes[0].wCount.Val = 0;
  3544  001708  0E00               	movlw	0
  3545  00170A  6E06               	movwf	_outPipes+5,c
  3546  00170C  0E00               	movlw	0
  3547  00170E  6E05               	movwf	_outPipes+4,c
  3548                           
  3549                           ;usb_device.c: 2507: USBCheckStdRequest();
  3550  001710  EC28  F008         	call	_USBCheckStdRequest	;wreg free
  3551                           
  3552                           ;usb_device.c: 2508: USER_USB_CALLBACK_EVENT_HANDLER(EVENT_EP0_REQUEST,0,0);
  3553  001714  0E00               	movlw	0
  3554  001716  0100               	movlb	0	; () banked
  3555  001718  6FCA               	movwf	(USER_USB_CALLBACK_EVENT_HANDLER@event+1)& (0+255),b
  3556  00171A  0E03               	movlw	3
  3557  00171C  6FC9               	movwf	USER_USB_CALLBACK_EVENT_HANDLER@event& (0+255),b
  3558  00171E  0E00               	movlw	0
  3559  001720  6FCB               	movwf	USER_USB_CALLBACK_EVENT_HANDLER@pdata& (0+255),b
  3560  001722  0E00               	movlw	0
  3561  001724  6FCC               	movwf	(USER_USB_CALLBACK_EVENT_HANDLER@pdata+1)& (0+255),b
  3562  001726  0E00               	movlw	0
  3563  001728  6FCE               	movwf	(USER_USB_CALLBACK_EVENT_HANDLER@size+1)& (0+255),b
  3564  00172A  0E00               	movlw	0
  3565  00172C  6FCD               	movwf	USER_USB_CALLBACK_EVENT_HANDLER@size& (0+255),b
  3566  00172E  EC9C  F00B         	call	_USER_USB_CALLBACK_EVENT_HANDLER	;wreg free
  3567                           
  3568                           ;usb_device.c: 2521: USBCtrlEPServiceComplete();
  3569  001732  ECD0  F006         	call	_USBCtrlEPServiceComplete	;wreg free
  3570  001736  0012               	return		;funcret
  3571  001738                     __end_of_USBCtrlTrfSetupHandler:
  3572                           	opt stack 0
  3573                           tblptru	equ	0xFF8
  3574                           tblptrh	equ	0xFF7
  3575                           tblptrl	equ	0xFF6
  3576                           tablat	equ	0xFF5
  3577                           prodh	equ	0xFF4
  3578                           prodl	equ	0xFF3
  3579                           postinc0	equ	0xFEE
  3580                           wreg	equ	0xFE8
  3581                           indf2	equ	0xFDF
  3582                           postinc2	equ	0xFDE
  3583                           postdec2	equ	0xFDD
  3584                           plusw2	equ	0xFDB
  3585                           fsr2h	equ	0xFDA
  3586                           fsr2l	equ	0xFD9
  3587                           status	equ	0xFD8
  3588                           
  3589 ;; *************** function _USBCtrlEPServiceComplete *****************
  3590 ;; Defined at:
  3591 ;;		line 1623 in file "../../../../../../framework/usb/src/usb_device.c"
  3592 ;; Parameters:    Size  Location     Type
  3593 ;;		None
  3594 ;; Auto vars:     Size  Location     Type
  3595 ;;		None
  3596 ;; Return value:  Size  Location     Type
  3597 ;;                  1    wreg      void 
  3598 ;; Registers used:
  3599 ;;		wreg, fsr0l, fsr0h, fsr2l, fsr2h, status,2, status,0, tblptrl, tblptrh, tblptru, cstack
  3600 ;; Tracked objects:
  3601 ;;		On entry : 0/0
  3602 ;;		On exit  : 0/0
  3603 ;;		Unchanged: 0/0
  3604 ;; Data sizes:     COMRAM   BANK0   BANK1   BANK2   BANK3   BANK4   BANK5   BANK6   BANK7
  3605 ;;      Params:         0       0       0       0       0       0       0       0       0
  3606 ;;      Locals:         0       0       0       0       0       0       0       0       0
  3607 ;;      Temps:          0       0       0       0       0       0       0       0       0
  3608 ;;      Totals:         0       0       0       0       0       0       0       0       0
  3609 ;;Total ram usage:        0 bytes
  3610 ;; Hardware stack levels used:    1
  3611 ;; Hardware stack levels required when called:    3
  3612 ;; This function calls:
  3613 ;;		_USBCtrlEPAllowDataStage
  3614 ;;		_USBCtrlEPAllowStatusStage
  3615 ;; This function is called by:
  3616 ;;		_USBCtrlTrfSetupHandler
  3617 ;; This function uses a non-reentrant model
  3618 ;;
  3619                           
  3620                           	psect	text10
  3621  000DA0                     __ptext10:
  3622                           	opt stack 0
  3623  000DA0                     _USBCtrlEPServiceComplete:
  3624                           	opt stack 24
  3625                           
  3626                           ;usb_device.c: 1629: UCONbits.PKTDIS = 0;
  3627                           
  3628                           ;incstack = 0
  3629  000DA0  9860               	bcf	3936,4,c	;volatile
  3630                           
  3631                           ;usb_device.c: 1635: if(inPipes[0].info.bits.busy == 0)
  3632  000DA2  BE0C               	btfsc	_inPipes+3,7,c
  3633  000DA4  D038               	goto	l323
  3634                           
  3635                           ;usb_device.c: 1636: {
  3636                           ;usb_device.c: 1637: if(outPipes[0].info.bits.busy == 1)
  3637  000DA6  AE04               	btfss	_outPipes+3,7,c
  3638  000DA8  D00B               	goto	l324
  3639                           
  3640                           ;usb_device.c: 1638: {
  3641                           ;usb_device.c: 1639: controlTransferState = 2;
  3642  000DAA  0E02               	movlw	2
  3643  000DAC  6E2A               	movwf	_controlTransferState,c
  3644                           
  3645                           ;usb_device.c: 1650: if(USBDeferOUTDataStagePackets == 0)
  3646  000DAE  5020               	movf	_USBDeferOUTDataStagePackets,w,c	;volatile
  3647  000DB0  B4D8               	btfsc	status,2,c
  3648                           
  3649                           ;usb_device.c: 1651: {
  3650                           ;usb_device.c: 1652: USBCtrlEPAllowDataStage();
  3651  000DB2  ECBF  F00A         	call	_USBCtrlEPAllowDataStage	;wreg free
  3652                           
  3653                           ;usb_device.c: 1653: }
  3654                           ;usb_device.c: 1657: USBStatusStageEnabledFlag2 = 0;
  3655  000DB6  0E00               	movlw	0
  3656  000DB8  6E22               	movwf	_USBStatusStageEnabledFlag2,c	;volatile
  3657                           
  3658                           ;usb_device.c: 1658: USBStatusStageEnabledFlag1 = 0;
  3659  000DBA  0E00               	movlw	0
  3660  000DBC  6E23               	movwf	_USBStatusStageEnabledFlag1,c	;volatile
  3661                           
  3662                           ;usb_device.c: 1659: }
  3663  000DBE  0012               	return	
  3664  000DC0                     l324:
  3665                           
  3666                           ;usb_device.c: 1660: else
  3667                           ;usb_device.c: 1661: {
  3668                           ;usb_device.c: 1666: pBDTEntryEP0OutNext->CNT = 8;
  3669  000DC0  EE20 F001          	lfsr	2,1
  3670  000DC4  5017               	movf	_pBDTEntryEP0OutNext,w,c
  3671  000DC6  26D9               	addwf	fsr2l,f,c
  3672  000DC8  5018               	movf	_pBDTEntryEP0OutNext+1,w,c
  3673  000DCA  22DA               	addwfc	fsr2h,f,c
  3674  000DCC  0E08               	movlw	8
  3675  000DCE  6EDF               	movwf	indf2,c
  3676                           
  3677                           ;usb_device.c: 1667: pBDTEntryEP0OutNext->ADR = ((uint16_t)(&SetupPkt));
  3678  000DD0  EE20 F002          	lfsr	2,2
  3679  000DD4  5017               	movf	_pBDTEntryEP0OutNext,w,c
  3680  000DD6  26D9               	addwf	fsr2l,f,c
  3681  000DD8  5018               	movf	_pBDTEntryEP0OutNext+1,w,c
  3682  000DDA  22DA               	addwfc	fsr2h,f,c
  3683  000DDC  0E20               	movlw	32
  3684  000DDE  6EDE               	movwf	postinc2,c
  3685  000DE0  0E04               	movlw	4
  3686  000DE2  6EDD               	movwf	postdec2,c
  3687                           
  3688                           ;usb_device.c: 1668: pBDTEntryEP0OutNext->STAT.Val = 0x00|(0x08 & 0x08)|0x04;
  3689  000DE4  C017  FFD9         	movff	_pBDTEntryEP0OutNext,fsr2l
  3690  000DE8  C018  FFDA         	movff	_pBDTEntryEP0OutNext+1,fsr2h
  3691  000DEC  0E0C               	movlw	12
  3692  000DEE  6EDF               	movwf	indf2,c
  3693                           
  3694                           ;usb_device.c: 1669: pBDTEntryEP0OutNext->STAT.Val |= 0x80;
  3695  000DF0  C017  FFD9         	movff	_pBDTEntryEP0OutNext,fsr2l
  3696  000DF4  C018  FFDA         	movff	_pBDTEntryEP0OutNext+1,fsr2h
  3697  000DF8  0E00               	movlw	0
  3698  000DFA  8EDB               	bsf	plusw2,7,c
  3699                           
  3700                           ;usb_device.c: 1670: pBDTEntryIn[0]->STAT.Val = 0x04;
  3701  000DFC  C00F  FFD9         	movff	_pBDTEntryIn,fsr2l
  3702  000E00  C010  FFDA         	movff	_pBDTEntryIn+1,fsr2h
  3703  000E04  0E04               	movlw	4
  3704  000E06  6EDF               	movwf	indf2,c
  3705                           
  3706                           ;usb_device.c: 1671: pBDTEntryIn[0]->STAT.Val |= 0x80;
  3707  000E08  C00F  FFD9         	movff	_pBDTEntryIn,fsr2l
  3708  000E0C  C010  FFDA         	movff	_pBDTEntryIn+1,fsr2h
  3709  000E10  0E00               	movlw	0
  3710  000E12  8EDB               	bsf	plusw2,7,c
  3711                           
  3712                           ;usb_device.c: 1672: }
  3713                           ;usb_device.c: 1673: }
  3714  000E14  0012               	return	
  3715  000E16                     l323:
  3716                           
  3717                           ;usb_device.c: 1674: else
  3718                           ;usb_device.c: 1675: {
  3719                           ;usb_device.c: 1676: if(SetupPkt.DataDir == (0x80>>7))
  3720  000E16  0104               	movlb	4	; () banked
  3721  000E18  AF20               	btfss	32,7,b	;volatile
  3722  000E1A  D010               	goto	l328
  3723                           
  3724                           ; BSR set to: 4
  3725                           ;usb_device.c: 1677: {
  3726                           ;usb_device.c: 1678: controlTransferState = 1;
  3727  000E1C  0E01               	movlw	1
  3728  000E1E  6E2A               	movwf	_controlTransferState,c
  3729                           
  3730                           ;usb_device.c: 1692: if(USBDeferINDataStagePackets == 0)
  3731  000E20  5021               	movf	_USBDeferINDataStagePackets,w,c	;volatile
  3732  000E22  B4D8               	btfsc	status,2,c
  3733                           
  3734                           ; BSR set to: 4
  3735                           ;usb_device.c: 1693: {
  3736                           ;usb_device.c: 1694: USBCtrlEPAllowDataStage();
  3737  000E24  ECBF  F00A         	call	_USBCtrlEPAllowDataStage	;wreg free
  3738                           
  3739                           ;usb_device.c: 1695: }
  3740                           ;usb_device.c: 1717: USBStatusStageEnabledFlag2 = 0;
  3741  000E28  0E00               	movlw	0
  3742  000E2A  6E22               	movwf	_USBStatusStageEnabledFlag2,c	;volatile
  3743                           
  3744                           ;usb_device.c: 1718: USBStatusStageEnabledFlag1 = 0;
  3745  000E2C  0E00               	movlw	0
  3746  000E2E  6E23               	movwf	_USBStatusStageEnabledFlag1,c	;volatile
  3747                           
  3748                           ;usb_device.c: 1719: if(USBDeferStatusStagePacket == 0)
  3749  000E30  5024               	movf	_USBDeferStatusStagePacket,w,c	;volatile
  3750  000E32  A4D8               	btfss	status,2,c
  3751  000E34  0012               	return	
  3752                           
  3753                           ;usb_device.c: 1720: {
  3754                           ;usb_device.c: 1721: USBCtrlEPAllowStatusStage();
  3755  000E36  EC66  F009         	call	_USBCtrlEPAllowStatusStage	;wreg free
  3756                           
  3757                           ;usb_device.c: 1722: }
  3758                           ;usb_device.c: 1723: }
  3759  000E3A  0012               	return	
  3760  000E3C                     l328:
  3761                           
  3762                           ;usb_device.c: 1724: else
  3763                           ;usb_device.c: 1725: {
  3764                           ;usb_device.c: 1736: controlTransferState = 2;
  3765  000E3C  0E02               	movlw	2
  3766  000E3E  6E2A               	movwf	_controlTransferState,c
  3767                           
  3768                           ;usb_device.c: 1739: pBDTEntryEP0OutNext->CNT = 8;
  3769  000E40  EE20 F001          	lfsr	2,1
  3770  000E44  5017               	movf	_pBDTEntryEP0OutNext,w,c
  3771  000E46  26D9               	addwf	fsr2l,f,c
  3772  000E48  5018               	movf	_pBDTEntryEP0OutNext+1,w,c
  3773  000E4A  22DA               	addwfc	fsr2h,f,c
  3774  000E4C  0E08               	movlw	8
  3775  000E4E  6EDF               	movwf	indf2,c
  3776                           
  3777                           ;usb_device.c: 1740: pBDTEntryEP0OutNext->ADR = ((uint16_t)(&SetupPkt));
  3778  000E50  EE20 F002          	lfsr	2,2
  3779  000E54  5017               	movf	_pBDTEntryEP0OutNext,w,c
  3780  000E56  26D9               	addwf	fsr2l,f,c
  3781  000E58  5018               	movf	_pBDTEntryEP0OutNext+1,w,c
  3782  000E5A  22DA               	addwfc	fsr2h,f,c
  3783  000E5C  0E20               	movlw	32
  3784  000E5E  6EDE               	movwf	postinc2,c
  3785  000E60  0E04               	movlw	4
  3786  000E62  6EDD               	movwf	postdec2,c
  3787                           
  3788                           ;usb_device.c: 1741: pBDTEntryEP0OutNext->STAT.Val = 0x04;
  3789  000E64  C017  FFD9         	movff	_pBDTEntryEP0OutNext,fsr2l
  3790  000E68  C018  FFDA         	movff	_pBDTEntryEP0OutNext+1,fsr2h
  3791  000E6C  0E04               	movlw	4
  3792  000E6E  6EDF               	movwf	indf2,c
  3793                           
  3794                           ;usb_device.c: 1742: pBDTEntryEP0OutNext->STAT.Val |= 0x80;
  3795  000E70  C017  FFD9         	movff	_pBDTEntryEP0OutNext,fsr2l
  3796  000E74  C018  FFDA         	movff	_pBDTEntryEP0OutNext+1,fsr2h
  3797  000E78  0E00               	movlw	0
  3798  000E7A  8EDB               	bsf	plusw2,7,c
  3799                           
  3800                           ;usb_device.c: 1745: USBStatusStageEnabledFlag2 = 0;
  3801  000E7C  0E00               	movlw	0
  3802  000E7E  6E22               	movwf	_USBStatusStageEnabledFlag2,c	;volatile
  3803                           
  3804                           ;usb_device.c: 1746: USBStatusStageEnabledFlag1 = 0;
  3805  000E80  0E00               	movlw	0
  3806  000E82  6E23               	movwf	_USBStatusStageEnabledFlag1,c	;volatile
  3807                           
  3808                           ;usb_device.c: 1747: if(USBDeferStatusStagePacket == 0)
  3809  000E84  5024               	movf	_USBDeferStatusStagePacket,w,c	;volatile
  3810  000E86  A4D8               	btfss	status,2,c
  3811  000E88  0012               	return	
  3812                           
  3813                           ;usb_device.c: 1748: {
  3814                           ;usb_device.c: 1749: USBCtrlEPAllowStatusStage();
  3815  000E8A  EC66  F009         	call	_USBCtrlEPAllowStatusStage	;wreg free
  3816  000E8E  0012               	return	
  3817  000E90                     __end_of_USBCtrlEPServiceComplete:
  3818                           	opt stack 0
  3819                           tblptru	equ	0xFF8
  3820                           tblptrh	equ	0xFF7
  3821                           tblptrl	equ	0xFF6
  3822                           tablat	equ	0xFF5
  3823                           prodh	equ	0xFF4
  3824                           prodl	equ	0xFF3
  3825                           postinc0	equ	0xFEE
  3826                           wreg	equ	0xFE8
  3827                           indf2	equ	0xFDF
  3828                           postinc2	equ	0xFDE
  3829                           postdec2	equ	0xFDD
  3830                           plusw2	equ	0xFDB
  3831                           fsr2h	equ	0xFDA
  3832                           fsr2l	equ	0xFD9
  3833                           status	equ	0xFD8
  3834                           
  3835 ;; *************** function _USBCtrlEPAllowDataStage *****************
  3836 ;; Defined at:
  3837 ;;		line 1495 in file "../../../../../../framework/usb/src/usb_device.c"
  3838 ;; Parameters:    Size  Location     Type
  3839 ;;		None
  3840 ;; Auto vars:     Size  Location     Type
  3841 ;;		None
  3842 ;; Return value:  Size  Location     Type
  3843 ;;                  1    wreg      void 
  3844 ;; Registers used:
  3845 ;;		wreg, fsr0l, fsr0h, fsr2l, fsr2h, status,2, status,0, tblptrl, tblptrh, tblptru, cstack
  3846 ;; Tracked objects:
  3847 ;;		On entry : 0/0
  3848 ;;		On exit  : 0/0
  3849 ;;		Unchanged: 0/0
  3850 ;; Data sizes:     COMRAM   BANK0   BANK1   BANK2   BANK3   BANK4   BANK5   BANK6   BANK7
  3851 ;;      Params:         0       0       0       0       0       0       0       0       0
  3852 ;;      Locals:         0       0       0       0       0       0       0       0       0
  3853 ;;      Temps:          0       0       0       0       0       0       0       0       0
  3854 ;;      Totals:         0       0       0       0       0       0       0       0       0
  3855 ;;Total ram usage:        0 bytes
  3856 ;; Hardware stack levels used:    1
  3857 ;; Hardware stack levels required when called:    2
  3858 ;; This function calls:
  3859 ;;		_USBCtrlTrfTxService
  3860 ;; This function is called by:
  3861 ;;		_USBCtrlEPServiceComplete
  3862 ;; This function uses a non-reentrant model
  3863 ;;
  3864                           
  3865                           	psect	text11
  3866  00157E                     __ptext11:
  3867                           	opt stack 0
  3868  00157E                     _USBCtrlEPAllowDataStage:
  3869                           	opt stack 24
  3870                           
  3871                           ;usb_device.c: 1497: USBDeferINDataStagePackets = 0;
  3872                           
  3873                           ;incstack = 0
  3874  00157E  0E00               	movlw	0
  3875  001580  6E21               	movwf	_USBDeferINDataStagePackets,c	;volatile
  3876                           
  3877                           ;usb_device.c: 1498: USBDeferOUTDataStagePackets = 0;
  3878  001582  0E00               	movlw	0
  3879  001584  6E20               	movwf	_USBDeferOUTDataStagePackets,c	;volatile
  3880                           
  3881                           ;usb_device.c: 1500: if(controlTransferState == 2)
  3882  001586  0E02               	movlw	2
  3883  001588  182A               	xorwf	_controlTransferState,w,c
  3884  00158A  A4D8               	btfss	status,2,c
  3885  00158C  D01F               	goto	l312
  3886                           
  3887                           ;usb_device.c: 1501: {
  3888                           ;usb_device.c: 1503: pBDTEntryEP0OutNext->CNT = 8;
  3889  00158E  EE20 F001          	lfsr	2,1
  3890  001592  5017               	movf	_pBDTEntryEP0OutNext,w,c
  3891  001594  26D9               	addwf	fsr2l,f,c
  3892  001596  5018               	movf	_pBDTEntryEP0OutNext+1,w,c
  3893  001598  22DA               	addwfc	fsr2h,f,c
  3894  00159A  0E08               	movlw	8
  3895  00159C  6EDF               	movwf	indf2,c
  3896                           
  3897                           ;usb_device.c: 1504: pBDTEntryEP0OutNext->ADR = ((uint16_t)(&CtrlTrfData));
  3898  00159E  EE20 F002          	lfsr	2,2
  3899  0015A2  5017               	movf	_pBDTEntryEP0OutNext,w,c
  3900  0015A4  26D9               	addwf	fsr2l,f,c
  3901  0015A6  5018               	movf	_pBDTEntryEP0OutNext+1,w,c
  3902  0015A8  22DA               	addwfc	fsr2h,f,c
  3903  0015AA  0E28               	movlw	40
  3904  0015AC  6EDE               	movwf	postinc2,c
  3905  0015AE  0E04               	movlw	4
  3906  0015B0  6EDD               	movwf	postdec2,c
  3907                           
  3908                           ;usb_device.c: 1505: pBDTEntryEP0OutNext->STAT.Val = 0x40|(0x08 & 0x08);
  3909  0015B2  C017  FFD9         	movff	_pBDTEntryEP0OutNext,fsr2l
  3910  0015B6  C018  FFDA         	movff	_pBDTEntryEP0OutNext+1,fsr2h
  3911  0015BA  0E48               	movlw	72
  3912  0015BC  6EDF               	movwf	indf2,c
  3913                           
  3914                           ;usb_device.c: 1506: pBDTEntryEP0OutNext->STAT.Val |= 0x80;
  3915  0015BE  C017  FFD9         	movff	_pBDTEntryEP0OutNext,fsr2l
  3916  0015C2  C018  FFDA         	movff	_pBDTEntryEP0OutNext+1,fsr2h
  3917  0015C6  0E00               	movlw	0
  3918  0015C8  8EDB               	bsf	plusw2,7,c
  3919                           
  3920                           ;usb_device.c: 1507: }
  3921  0015CA  0012               	return	
  3922  0015CC                     l312:
  3923                           
  3924                           ;usb_device.c: 1508: else
  3925                           ;usb_device.c: 1509: {
  3926                           ;usb_device.c: 1512: if(SetupPkt.wLength < inPipes[0].wCount.Val)
  3927  0015CC  500D               	movf	_inPipes+4,w,c
  3928  0015CE  0104               	movlb	4	; () banked
  3929  0015D0  5D26               	subwf	38,w,b	;volatile
  3930  0015D2  500E               	movf	_inPipes+5,w,c
  3931  0015D4  5927               	subwfb	39,w,b	;volatile
  3932  0015D6  B0D8               	btfsc	status,0,c
  3933  0015D8  D004               	goto	l314
  3934                           
  3935                           ; BSR set to: 4
  3936                           ;usb_device.c: 1513: {
  3937                           ;usb_device.c: 1514: inPipes[0].wCount.Val = SetupPkt.wLength;
  3938  0015DA  C426 F00D          	movff	1062,_inPipes+4	;volatile
  3939  0015DE  C427 F00E          	movff	1063,_inPipes+5	;volatile
  3940  0015E2                     l314:
  3941                           
  3942                           ; BSR set to: 4
  3943                           ;usb_device.c: 1515: }
  3944                           ;usb_device.c: 1516: USBCtrlTrfTxService();
  3945                           
  3946                           ; BSR set to: 4
  3947  0015E2  EC00  F009         	call	_USBCtrlTrfTxService	;wreg free
  3948                           
  3949                           ;usb_device.c: 1521: pBDTEntryIn[0]->ADR = ((uint16_t)(&CtrlTrfData));
  3950  0015E6  EE20 F002          	lfsr	2,2
  3951  0015EA  500F               	movf	_pBDTEntryIn,w,c
  3952  0015EC  26D9               	addwf	fsr2l,f,c
  3953  0015EE  5010               	movf	_pBDTEntryIn+1,w,c
  3954  0015F0  22DA               	addwfc	fsr2h,f,c
  3955  0015F2  0E28               	movlw	40
  3956  0015F4  6EDE               	movwf	postinc2,c
  3957  0015F6  0E04               	movlw	4
  3958  0015F8  6EDD               	movwf	postdec2,c
  3959                           
  3960                           ;usb_device.c: 1522: pBDTEntryIn[0]->STAT.Val = 0x40|(0x08 & 0x08);
  3961  0015FA  C00F  FFD9         	movff	_pBDTEntryIn,fsr2l
  3962  0015FE  C010  FFDA         	movff	_pBDTEntryIn+1,fsr2h
  3963  001602  0E48               	movlw	72
  3964  001604  6EDF               	movwf	indf2,c
  3965                           
  3966                           ;usb_device.c: 1523: pBDTEntryIn[0]->STAT.Val |= 0x80;
  3967  001606  C00F  FFD9         	movff	_pBDTEntryIn,fsr2l
  3968  00160A  C010  FFDA         	movff	_pBDTEntryIn+1,fsr2h
  3969  00160E  0E00               	movlw	0
  3970  001610  8EDB               	bsf	plusw2,7,c
  3971  001612  0012               	return	
  3972  001614                     __end_of_USBCtrlEPAllowDataStage:
  3973                           	opt stack 0
  3974                           tblptru	equ	0xFF8
  3975                           tblptrh	equ	0xFF7
  3976                           tblptrl	equ	0xFF6
  3977                           tablat	equ	0xFF5
  3978                           prodh	equ	0xFF4
  3979                           prodl	equ	0xFF3
  3980                           postinc0	equ	0xFEE
  3981                           wreg	equ	0xFE8
  3982                           indf2	equ	0xFDF
  3983                           postinc2	equ	0xFDE
  3984                           postdec2	equ	0xFDD
  3985                           plusw2	equ	0xFDB
  3986                           fsr2h	equ	0xFDA
  3987                           fsr2l	equ	0xFD9
  3988                           status	equ	0xFD8
  3989                           
  3990 ;; *************** function _USBCheckStdRequest *****************
  3991 ;; Defined at:
  3992 ;;		line 2693 in file "../../../../../../framework/usb/src/usb_device.c"
  3993 ;; Parameters:    Size  Location     Type
  3994 ;;		None
  3995 ;; Auto vars:     Size  Location     Type
  3996 ;;		None
  3997 ;; Return value:  Size  Location     Type
  3998 ;;                  1    wreg      void 
  3999 ;; Registers used:
  4000 ;;		wreg, fsr0l, fsr0h, fsr2l, fsr2h, status,2, status,0, tblptrl, tblptrh, tblptru, prodl, prodh, cstack
  4001 ;; Tracked objects:
  4002 ;;		On entry : 0/0
  4003 ;;		On exit  : 0/0
  4004 ;;		Unchanged: 0/0
  4005 ;; Data sizes:     COMRAM   BANK0   BANK1   BANK2   BANK3   BANK4   BANK5   BANK6   BANK7
  4006 ;;      Params:         0       0       0       0       0       0       0       0       0
  4007 ;;      Locals:         0       0       0       0       0       0       0       0       0
  4008 ;;      Temps:          0       0       0       0       0       0       0       0       0
  4009 ;;      Totals:         0       0       0       0       0       0       0       0       0
  4010 ;;Total ram usage:        0 bytes
  4011 ;; Hardware stack levels used:    1
  4012 ;; Hardware stack levels required when called:    6
  4013 ;; This function calls:
  4014 ;;		_USBStdFeatureReqHandler
  4015 ;;		_USBStdGetDscHandler
  4016 ;;		_USBStdGetStatusHandler
  4017 ;;		_USBStdSetCfgHandler
  4018 ;;		_USER_USB_CALLBACK_EVENT_HANDLER
  4019 ;; This function is called by:
  4020 ;;		_USBCtrlTrfSetupHandler
  4021 ;; This function uses a non-reentrant model
  4022 ;;
  4023                           
  4024                           	psect	text12
  4025  001050                     __ptext12:
  4026                           	opt stack 0
  4027  001050                     _USBCheckStdRequest:
  4028                           	opt stack 21
  4029                           
  4030                           ;usb_device.c: 2695: if(SetupPkt.RequestType != (0x00>>5)) return;
  4031                           
  4032                           ;incstack = 0
  4033  001050  0104               	movlb	4	; () banked
  4034  001052  3920               	swapf	32,w,b	;volatile
  4035  001054  32E8               	rrcf	wreg,f,c
  4036  001056  0B03               	andlw	3
  4037  001058  0900               	iorlw	0
  4038  00105A  A4D8               	btfss	status,2,c
  4039  00105C  0012               	return	
  4040  00105E  D043               	goto	l447
  4041  001060                     l448:
  4042                           
  4043                           ; BSR set to: 4
  4044                           ;usb_device.c: 2700: inPipes[0].info.bits.busy = 1;
  4045  001060  8E0C               	bsf	_inPipes+3,7,c
  4046                           
  4047                           ; BSR set to: 4
  4048                           ;usb_device.c: 2701: USBDeviceState = ADR_PENDING_STATE;
  4049  001062  0E08               	movlw	8
  4050  001064  6E2C               	movwf	_USBDeviceState,c
  4051                           
  4052                           ;usb_device.c: 2703: break;
  4053  001066  0012               	return	
  4054  001068                     
  4055                           ; BSR set to: 4
  4056                           ;usb_device.c: 2705: USBStdGetDscHandler();
  4057                           
  4058                           ; BSR set to: 4
  4059  001068  EC40  F005         	call	_USBStdGetDscHandler	;wreg free
  4060                           
  4061                           ;usb_device.c: 2706: break;
  4062  00106C  0012               	return	
  4063  00106E                     
  4064                           ;usb_device.c: 2708: USBStdSetCfgHandler();
  4065  00106E  ECB9  F007         	call	_USBStdSetCfgHandler	;wreg free
  4066                           
  4067                           ;usb_device.c: 2709: break;
  4068  001072  0012               	return	
  4069  001074                     
  4070                           ;usb_device.c: 2711: inPipes[0].pSrc.bRam = (uint8_t*)&USBActiveConfiguration;
  4071  001074  0E2F               	movlw	low _USBActiveConfiguration
  4072  001076  6E09               	movwf	_inPipes,c
  4073  001078  0E00               	movlw	high _USBActiveConfiguration
  4074  00107A  6E0A               	movwf	_inPipes+1,c
  4075                           
  4076                           ;usb_device.c: 2712: inPipes[0].info.bits.ctrl_trf_mem = 0x01;
  4077  00107C  800C               	bsf	_inPipes+3,0,c
  4078                           
  4079                           ;usb_device.c: 2713: inPipes[0].wCount.v[0] = 1;
  4080  00107E  0E01               	movlw	1
  4081  001080  6E0D               	movwf	_inPipes+4,c
  4082                           
  4083                           ;usb_device.c: 2714: inPipes[0].info.bits.busy = 1;
  4084  001082  8E0C               	bsf	_inPipes+3,7,c
  4085                           
  4086                           ;usb_device.c: 2715: break;
  4087  001084  0012               	return	
  4088  001086                     
  4089                           ;usb_device.c: 2717: USBStdGetStatusHandler();
  4090  001086  EC25  F00A         	call	_USBStdGetStatusHandler	;wreg free
  4091                           
  4092                           ;usb_device.c: 2718: break;
  4093  00108A  0012               	return	
  4094  00108C                     
  4095                           ;usb_device.c: 2720: case 3:
  4096                           ;usb_device.c: 2721: USBStdFeatureReqHandler();
  4097  00108C  EC51  F000         	call	_USBStdFeatureReqHandler	;wreg free
  4098                           
  4099                           ;usb_device.c: 2722: break;
  4100  001090  0012               	return	
  4101  001092                     
  4102                           ;usb_device.c: 2724: inPipes[0].pSrc.bRam = (uint8_t*)&USBAlternateInterface[SetupPkt.bI
      +                          ntfID];
  4103  001092  0104               	movlb	4	; () banked
  4104  001094  5124               	movf	36,w,b	;volatile
  4105  001096  0D01               	mullw	1
  4106  001098  0E2E               	movlw	low _USBAlternateInterface
  4107  00109A  24F3               	addwf	prodl,w,c
  4108  00109C  6E09               	movwf	_inPipes,c
  4109  00109E  0E00               	movlw	high _USBAlternateInterface
  4110  0010A0  20F4               	addwfc	prodh,w,c
  4111  0010A2  6E0A               	movwf	_inPipes+1,c
  4112                           
  4113                           ; BSR set to: 4
  4114                           ;usb_device.c: 2725: inPipes[0].info.bits.ctrl_trf_mem = 0x01;
  4115  0010A4  800C               	bsf	_inPipes+3,0,c
  4116                           
  4117                           ; BSR set to: 4
  4118                           ;usb_device.c: 2726: inPipes[0].wCount.v[0] = 1;
  4119  0010A6  0E01               	movlw	1
  4120  0010A8  6E0D               	movwf	_inPipes+4,c
  4121                           
  4122                           ; BSR set to: 4
  4123                           ;usb_device.c: 2727: inPipes[0].info.bits.busy = 1;
  4124  0010AA  8E0C               	bsf	_inPipes+3,7,c
  4125                           
  4126                           ;usb_device.c: 2728: break;
  4127  0010AC  0012               	return	
  4128  0010AE                     l457:
  4129                           
  4130                           ; BSR set to: 4
  4131                           ;usb_device.c: 2730: inPipes[0].info.bits.busy = 1;
  4132  0010AE  8E0C               	bsf	_inPipes+3,7,c
  4133                           
  4134                           ; BSR set to: 4
  4135                           ;usb_device.c: 2731: USBAlternateInterface[SetupPkt.bIntfID] = SetupPkt.bAltID;
  4136  0010B0  5124               	movf	36,w,b	;volatile
  4137  0010B2  0D01               	mullw	1
  4138  0010B4  0E2E               	movlw	low _USBAlternateInterface
  4139  0010B6  24F3               	addwf	prodl,w,c
  4140  0010B8  6ED9               	movwf	fsr2l,c
  4141  0010BA  0E00               	movlw	high _USBAlternateInterface
  4142  0010BC  20F4               	addwfc	prodh,w,c
  4143  0010BE  6EDA               	movwf	fsr2h,c
  4144  0010C0  C422 FFDF          	movff	1058,indf2	;volatile
  4145                           
  4146                           ;usb_device.c: 2732: break;
  4147  0010C4  0012               	return	
  4148  0010C6                     
  4149                           ; BSR set to: 4
  4150                           ;usb_device.c: 2734: USER_USB_CALLBACK_EVENT_HANDLER(EVENT_SET_DESCRIPTOR,0,0);
  4151                           
  4152                           ; BSR set to: 4
  4153  0010C6  0E00               	movlw	0
  4154  0010C8  0100               	movlb	0	; () banked
  4155  0010CA  6FCA               	movwf	(USER_USB_CALLBACK_EVENT_HANDLER@event+1)& (0+255),b
  4156  0010CC  0E02               	movlw	2
  4157  0010CE  6FC9               	movwf	USER_USB_CALLBACK_EVENT_HANDLER@event& (0+255),b
  4158  0010D0  0E00               	movlw	0
  4159  0010D2  6FCB               	movwf	USER_USB_CALLBACK_EVENT_HANDLER@pdata& (0+255),b
  4160  0010D4  0E00               	movlw	0
  4161  0010D6  6FCC               	movwf	(USER_USB_CALLBACK_EVENT_HANDLER@pdata+1)& (0+255),b
  4162  0010D8  0E00               	movlw	0
  4163  0010DA  6FCE               	movwf	(USER_USB_CALLBACK_EVENT_HANDLER@size+1)& (0+255),b
  4164  0010DC  0E00               	movlw	0
  4165  0010DE  6FCD               	movwf	USER_USB_CALLBACK_EVENT_HANDLER@size& (0+255),b
  4166  0010E0  EC9C  F00B         	call	_USER_USB_CALLBACK_EVENT_HANDLER	;wreg free
  4167                           
  4168                           ;usb_device.c: 2739: }
  4169                           
  4170                           ;usb_device.c: 2738: break;
  4171                           
  4172                           ;usb_device.c: 2737: default:
  4173                           
  4174                           ;usb_device.c: 2736: case 12:
  4175                           
  4176                           ;usb_device.c: 2735: break;
  4177  0010E4  0012               	return	
  4178  0010E6                     l447:
  4179  0010E6  0104               	movlb	4	; () banked
  4180  0010E8  5121               	movf	33,w,b	;volatile
  4181                           
  4182                           ; Switch size 1, requested type "space"
  4183                           ; Number of cases is 11, Range of values is 0 to 12
  4184                           ; switch strategies available:
  4185                           ; Name         Instructions Cycles
  4186                           ; simple_byte           34    18 (average)
  4187                           ;	Chosen strategy is simple_byte
  4188  0010EA  0A00               	xorlw	0	; case 0
  4189  0010EC  B4D8               	btfsc	status,2,c
  4190  0010EE  D7CB               	goto	l453
  4191  0010F0  0A01               	xorlw	1	; case 1
  4192  0010F2  B4D8               	btfsc	status,2,c
  4193  0010F4  D7CB               	goto	l454
  4194  0010F6  0A02               	xorlw	2	; case 3
  4195  0010F8  B4D8               	btfsc	status,2,c
  4196  0010FA  D7C8               	goto	l454
  4197  0010FC  0A06               	xorlw	6	; case 5
  4198  0010FE  B4D8               	btfsc	status,2,c
  4199  001100  D7AF               	goto	l448
  4200  001102  0A03               	xorlw	3	; case 6
  4201  001104  B4D8               	btfsc	status,2,c
  4202  001106  D7B0               	goto	l450
  4203  001108  0A01               	xorlw	1	; case 7
  4204  00110A  B4D8               	btfsc	status,2,c
  4205  00110C  D7DC               	goto	l458
  4206  00110E  0A0F               	xorlw	15	; case 8
  4207  001110  B4D8               	btfsc	status,2,c
  4208  001112  D7B0               	goto	l452
  4209  001114  0A01               	xorlw	1	; case 9
  4210  001116  B4D8               	btfsc	status,2,c
  4211  001118  D7AA               	goto	l451
  4212  00111A  0A03               	xorlw	3	; case 10
  4213  00111C  B4D8               	btfsc	status,2,c
  4214  00111E  D7B9               	goto	l456
  4215  001120  0A01               	xorlw	1	; case 11
  4216  001122  B4D8               	btfsc	status,2,c
  4217  001124  D7C4               	goto	l457
  4218  001126  0A07               	xorlw	7	; case 12
  4219  001128  0012               	return	
  4220  00112A                     __end_of_USBCheckStdRequest:
  4221                           	opt stack 0
  4222                           tblptru	equ	0xFF8
  4223                           tblptrh	equ	0xFF7
  4224                           tblptrl	equ	0xFF6
  4225                           tablat	equ	0xFF5
  4226                           prodh	equ	0xFF4
  4227                           prodl	equ	0xFF3
  4228                           postinc0	equ	0xFEE
  4229                           wreg	equ	0xFE8
  4230                           indf2	equ	0xFDF
  4231                           postinc2	equ	0xFDE
  4232                           postdec2	equ	0xFDD
  4233                           plusw2	equ	0xFDB
  4234                           fsr2h	equ	0xFDA
  4235                           fsr2l	equ	0xFD9
  4236                           status	equ	0xFD8
  4237                           
  4238 ;; *************** function _USBStdSetCfgHandler *****************
  4239 ;; Defined at:
  4240 ;;		line 1975 in file "../../../../../../framework/usb/src/usb_device.c"
  4241 ;; Parameters:    Size  Location     Type
  4242 ;;		None
  4243 ;; Auto vars:     Size  Location     Type
  4244 ;;  i               1   27[COMRAM] unsigned char 
  4245 ;; Return value:  Size  Location     Type
  4246 ;;                  1    wreg      void 
  4247 ;; Registers used:
  4248 ;;		wreg, fsr2l, fsr2h, status,2, status,0, prodl, prodh, cstack
  4249 ;; Tracked objects:
  4250 ;;		On entry : 0/0
  4251 ;;		On exit  : 0/0
  4252 ;;		Unchanged: 0/0
  4253 ;; Data sizes:     COMRAM   BANK0   BANK1   BANK2   BANK3   BANK4   BANK5   BANK6   BANK7
  4254 ;;      Params:         0       0       0       0       0       0       0       0       0
  4255 ;;      Locals:         1       0       0       0       0       0       0       0       0
  4256 ;;      Temps:          0       0       0       0       0       0       0       0       0
  4257 ;;      Totals:         1       0       0       0       0       0       0       0       0
  4258 ;;Total ram usage:        1 bytes
  4259 ;; Hardware stack levels used:    1
  4260 ;; Hardware stack levels required when called:    5
  4261 ;; This function calls:
  4262 ;;		_USER_USB_CALLBACK_EVENT_HANDLER
  4263 ;;		_memset
  4264 ;; This function is called by:
  4265 ;;		_USBCheckStdRequest
  4266 ;; This function uses a non-reentrant model
  4267 ;;
  4268                           
  4269                           	psect	text13
  4270  000F72                     __ptext13:
  4271                           	opt stack 0
  4272  000F72                     _USBStdSetCfgHandler:
  4273                           	opt stack 21
  4274                           
  4275                           ;usb_device.c: 1977: uint8_t i;
  4276                           ;usb_device.c: 1980: inPipes[0].info.bits.busy = 1;
  4277                           
  4278                           ;incstack = 0
  4279  000F72  8E0C               	bsf	_inPipes+3,7,c
  4280                           
  4281                           ;usb_device.c: 1983: memset((void*)&UEP1,0x00,(1));;
  4282  000F74  0E6B               	movlw	107
  4283  000F76  6E42               	movwf	memset@p1,c
  4284  000F78  0E0F               	movlw	15
  4285  000F7A  6E43               	movwf	memset@p1+1,c
  4286  000F7C  0E00               	movlw	0
  4287  000F7E  6E45               	movwf	memset@c+1,c
  4288  000F80  0E00               	movlw	0
  4289  000F82  6E44               	movwf	memset@c,c
  4290  000F84  0E00               	movlw	0
  4291  000F86  6E47               	movwf	memset@n+1,c
  4292  000F88  0E01               	movlw	1
  4293  000F8A  6E46               	movwf	memset@n,c
  4294  000F8C  EC05  F00E         	call	_memset	;wreg free
  4295                           
  4296                           ;usb_device.c: 1986: memset((void*)&BDT[0], 0x00, sizeof(BDT));
  4297  000F90  0E00               	movlw	0
  4298  000F92  6E42               	movwf	memset@p1,c
  4299  000F94  0E04               	movlw	4
  4300  000F96  6E43               	movwf	memset@p1+1,c
  4301  000F98  0E00               	movlw	0
  4302  000F9A  6E45               	movwf	memset@c+1,c
  4303  000F9C  0E00               	movlw	0
  4304  000F9E  6E44               	movwf	memset@c,c
  4305  000FA0  0E00               	movlw	0
  4306  000FA2  6E47               	movwf	memset@n+1,c
  4307  000FA4  0E20               	movlw	32
  4308  000FA6  6E46               	movwf	memset@n,c
  4309  000FA8  EC05  F00E         	call	_memset	;wreg free
  4310                           
  4311                           ;usb_device.c: 1989: UCONbits.PPBRST = 1;
  4312  000FAC  8C60               	bsf	3936,6,c	;volatile
  4313                           
  4314                           ;usb_device.c: 1994: for(i = 0; i < (uint8_t)(1+1u); i++)
  4315  000FAE  0E00               	movlw	0
  4316  000FB0  6E4B               	movwf	USBStdSetCfgHandler@i,c
  4317  000FB2                     l4657:
  4318  000FB2  0E01               	movlw	1
  4319  000FB4  644B               	cpfsgt	USBStdSetCfgHandler@i,c
  4320  000FB6  D001               	goto	l364
  4321  000FB8  D016               	goto	u4290
  4322  000FBA                     l364:
  4323                           
  4324                           ;usb_device.c: 1995: {
  4325                           ;usb_device.c: 1996: ep_data_in[i].Val = 0u;
  4326  000FBA  504B               	movf	USBStdSetCfgHandler@i,w,c
  4327  000FBC  0D01               	mullw	1
  4328  000FBE  0E78               	movlw	low _ep_data_in
  4329  000FC0  24F3               	addwf	prodl,w,c
  4330  000FC2  6ED9               	movwf	fsr2l,c
  4331  000FC4  0E00               	movlw	high _ep_data_in
  4332  000FC6  20F4               	addwfc	prodh,w,c
  4333  000FC8  6EDA               	movwf	fsr2h,c
  4334  000FCA  0E00               	movlw	0
  4335  000FCC  6EDF               	movwf	indf2,c
  4336                           
  4337                           ;usb_device.c: 1997: ep_data_out[i].Val = 0u;
  4338  000FCE  504B               	movf	USBStdSetCfgHandler@i,w,c
  4339  000FD0  0D01               	mullw	1
  4340  000FD2  0E76               	movlw	low _ep_data_out
  4341  000FD4  24F3               	addwf	prodl,w,c
  4342  000FD6  6ED9               	movwf	fsr2l,c
  4343  000FD8  0E00               	movlw	high _ep_data_out
  4344  000FDA  20F4               	addwfc	prodh,w,c
  4345  000FDC  6EDA               	movwf	fsr2h,c
  4346  000FDE  0E00               	movlw	0
  4347  000FE0  6EDF               	movwf	indf2,c
  4348  000FE2  2A4B               	incf	USBStdSetCfgHandler@i,f,c
  4349  000FE4  D7E6               	goto	l4657
  4350  000FE6                     u4290:
  4351                           
  4352                           ;usb_device.c: 1998: }
  4353                           ;usb_device.c: 2001: memset((void*)&USBAlternateInterface,0x00,1);
  4354  000FE6  0E2E               	movlw	low _USBAlternateInterface
  4355  000FE8  6E42               	movwf	memset@p1,c
  4356  000FEA  0E00               	movlw	high _USBAlternateInterface
  4357  000FEC  6E43               	movwf	memset@p1+1,c
  4358  000FEE  0E00               	movlw	0
  4359  000FF0  6E45               	movwf	memset@c+1,c
  4360  000FF2  0E00               	movlw	0
  4361  000FF4  6E44               	movwf	memset@c,c
  4362  000FF6  0E00               	movlw	0
  4363  000FF8  6E47               	movwf	memset@n+1,c
  4364  000FFA  0E01               	movlw	1
  4365  000FFC  6E46               	movwf	memset@n,c
  4366  000FFE  EC05  F00E         	call	_memset	;wreg free
  4367                           
  4368                           ;usb_device.c: 2004: UCONbits.PPBRST = 0;
  4369  001002  9C60               	bcf	3936,6,c	;volatile
  4370                           
  4371                           ;usb_device.c: 2006: pBDTEntryIn[0] = (volatile BDT_ENTRY*)&BDT[2];
  4372  001004  0E08               	movlw	8
  4373  001006  6E0F               	movwf	_pBDTEntryIn,c
  4374  001008  0E04               	movlw	4
  4375  00100A  6E10               	movwf	_pBDTEntryIn+1,c
  4376                           
  4377                           ;usb_device.c: 2009: pBDTEntryEP0OutCurrent = (volatile BDT_ENTRY*)&BDT[0];
  4378  00100C  0E00               	movlw	0
  4379  00100E  6E19               	movwf	_pBDTEntryEP0OutCurrent,c
  4380  001010  0E04               	movlw	4
  4381  001012  6E1A               	movwf	_pBDTEntryEP0OutCurrent+1,c
  4382                           
  4383                           ;usb_device.c: 2010: pBDTEntryEP0OutNext = pBDTEntryEP0OutCurrent;
  4384  001014  C019  F017         	movff	_pBDTEntryEP0OutCurrent,_pBDTEntryEP0OutNext
  4385  001018  C01A  F018         	movff	_pBDTEntryEP0OutCurrent+1,_pBDTEntryEP0OutNext+1
  4386                           
  4387                           ;usb_device.c: 2013: USBActiveConfiguration = SetupPkt.bConfigurationValue;
  4388  00101C  C422 F02F          	movff	1058,_USBActiveConfiguration	;volatile
  4389                           
  4390                           ;usb_device.c: 2016: if(USBActiveConfiguration == 0)
  4391  001020  502F               	movf	_USBActiveConfiguration,w,c
  4392  001022  A4D8               	btfss	status,2,c
  4393  001024  D003               	goto	l366
  4394                           
  4395                           ;usb_device.c: 2017: {
  4396                           ;usb_device.c: 2019: USBDeviceState = ADDRESS_STATE;
  4397  001026  0E10               	movlw	16
  4398  001028  6E2C               	movwf	_USBDeviceState,c
  4399                           
  4400                           ;usb_device.c: 2020: }
  4401  00102A  0012               	return	
  4402  00102C                     l366:
  4403                           
  4404                           ;usb_device.c: 2021: else
  4405                           ;usb_device.c: 2022: {
  4406                           ;usb_device.c: 2024: USER_USB_CALLBACK_EVENT_HANDLER(EVENT_CONFIGURED,(void*)&USBActiveC
      +                          onfiguration,1);
  4407  00102C  0E00               	movlw	0
  4408  00102E  0100               	movlb	0	; () banked
  4409  001030  6FCA               	movwf	(USER_USB_CALLBACK_EVENT_HANDLER@event+1)& (0+255),b
  4410  001032  0E01               	movlw	1
  4411  001034  6FC9               	movwf	USER_USB_CALLBACK_EVENT_HANDLER@event& (0+255),b
  4412  001036  0E2F               	movlw	low _USBActiveConfiguration
  4413  001038  6FCB               	movwf	USER_USB_CALLBACK_EVENT_HANDLER@pdata& (0+255),b
  4414  00103A  0E00               	movlw	high _USBActiveConfiguration
  4415  00103C  6FCC               	movwf	(USER_USB_CALLBACK_EVENT_HANDLER@pdata+1)& (0+255),b
  4416  00103E  0E00               	movlw	0
  4417  001040  6FCE               	movwf	(USER_USB_CALLBACK_EVENT_HANDLER@size+1)& (0+255),b
  4418  001042  0E01               	movlw	1
  4419  001044  6FCD               	movwf	USER_USB_CALLBACK_EVENT_HANDLER@size& (0+255),b
  4420  001046  EC9C  F00B         	call	_USER_USB_CALLBACK_EVENT_HANDLER	;wreg free
  4421                           
  4422                           ;usb_device.c: 2029: USBDeviceState = CONFIGURED_STATE;
  4423  00104A  0E20               	movlw	32
  4424  00104C  6E2C               	movwf	_USBDeviceState,c
  4425  00104E  0012               	return	
  4426  001050                     __end_of_USBStdSetCfgHandler:
  4427                           	opt stack 0
  4428                           tblptru	equ	0xFF8
  4429                           tblptrh	equ	0xFF7
  4430                           tblptrl	equ	0xFF6
  4431                           tablat	equ	0xFF5
  4432                           prodh	equ	0xFF4
  4433                           prodl	equ	0xFF3
  4434                           postinc0	equ	0xFEE
  4435                           wreg	equ	0xFE8
  4436                           indf2	equ	0xFDF
  4437                           postinc2	equ	0xFDE
  4438                           postdec2	equ	0xFDD
  4439                           plusw2	equ	0xFDB
  4440                           fsr2h	equ	0xFDA
  4441                           fsr2l	equ	0xFD9
  4442                           status	equ	0xFD8
  4443                           
  4444 ;; *************** function _memset *****************
  4445 ;; Defined at:
  4446 ;;		line 8 in file "C:\Program Files (x86)\Microchip\xc8\v1.45\sources\common\memset.c"
  4447 ;; Parameters:    Size  Location     Type
  4448 ;;  p1              2   18[COMRAM] PTR void 
  4449 ;;		 -> USBAlternateInterface(1), BDT(32), UEP1(1), 
  4450 ;;  c               2   20[COMRAM] int 
  4451 ;;  n               2   22[COMRAM] unsigned int 
  4452 ;; Auto vars:     Size  Location     Type
  4453 ;;  p               2   24[COMRAM] PTR unsigned char 
  4454 ;;		 -> USBAlternateInterface(1), BDT(32), UEP1(1), 
  4455 ;; Return value:  Size  Location     Type
  4456 ;;                  2   18[COMRAM] PTR void 
  4457 ;; Registers used:
  4458 ;;		wreg, fsr2l, fsr2h, status,2, status,0
  4459 ;; Tracked objects:
  4460 ;;		On entry : 0/0
  4461 ;;		On exit  : 0/0
  4462 ;;		Unchanged: 0/0
  4463 ;; Data sizes:     COMRAM   BANK0   BANK1   BANK2   BANK3   BANK4   BANK5   BANK6   BANK7
  4464 ;;      Params:         6       0       0       0       0       0       0       0       0
  4465 ;;      Locals:         2       0       0       0       0       0       0       0       0
  4466 ;;      Temps:          0       0       0       0       0       0       0       0       0
  4467 ;;      Totals:         8       0       0       0       0       0       0       0       0
  4468 ;;Total ram usage:        8 bytes
  4469 ;; Hardware stack levels used:    1
  4470 ;; Hardware stack levels required when called:    1
  4471 ;; This function calls:
  4472 ;;		Nothing
  4473 ;; This function is called by:
  4474 ;;		_USBDeviceInit
  4475 ;;		_USBStdSetCfgHandler
  4476 ;; This function uses a non-reentrant model
  4477 ;;
  4478                           
  4479                           	psect	text14
  4480  001C0A                     __ptext14:
  4481                           	opt stack 0
  4482  001C0A                     _memset:
  4483                           	opt stack 27
  4484                           
  4485                           ;incstack = 0
  4486  001C0A  C042  F048         	movff	memset@p1,memset@p
  4487  001C0E  C043  F049         	movff	memset@p1+1,memset@p+1
  4488  001C12  D008               	goto	l1329
  4489  001C14                     l4519:
  4490  001C14  C048  FFD9         	movff	memset@p,fsr2l
  4491  001C18  C049  FFDA         	movff	memset@p+1,fsr2h
  4492  001C1C  C044  FFDF         	movff	memset@c,indf2
  4493  001C20  4A48               	infsnz	memset@p,f,c
  4494  001C22  2A49               	incf	memset@p+1,f,c
  4495  001C24                     l1329:
  4496  001C24  0646               	decf	memset@n,f,c
  4497  001C26  A0D8               	btfss	status,0,c
  4498  001C28  0647               	decf	memset@n+1,f,c
  4499  001C2A  2846               	incf	memset@n,w,c
  4500  001C2C  E1F3               	bnz	l4519
  4501  001C2E  2847               	incf	memset@n+1,w,c
  4502  001C30  B4D8               	btfsc	status,2,c
  4503  001C32  0012               	return	
  4504  001C34  D7EF               	goto	l1330
  4505  001C36                     __end_of_memset:
  4506                           	opt stack 0
  4507                           tblptru	equ	0xFF8
  4508                           tblptrh	equ	0xFF7
  4509                           tblptrl	equ	0xFF6
  4510                           tablat	equ	0xFF5
  4511                           prodh	equ	0xFF4
  4512                           prodl	equ	0xFF3
  4513                           postinc0	equ	0xFEE
  4514                           wreg	equ	0xFE8
  4515                           indf2	equ	0xFDF
  4516                           postinc2	equ	0xFDE
  4517                           postdec2	equ	0xFDD
  4518                           plusw2	equ	0xFDB
  4519                           fsr2h	equ	0xFDA
  4520                           fsr2l	equ	0xFD9
  4521                           status	equ	0xFD8
  4522                           
  4523 ;; *************** function _USBStdGetStatusHandler *****************
  4524 ;; Defined at:
  4525 ;;		line 2136 in file "../../../../../../framework/usb/src/usb_device.c"
  4526 ;; Parameters:    Size  Location     Type
  4527 ;;		None
  4528 ;; Auto vars:     Size  Location     Type
  4529 ;;  p               2   19[COMRAM] PTR struct __BDT
  4530 ;;		 -> RAM(2047), NULL(0), BDT(32), 
  4531 ;; Return value:  Size  Location     Type
  4532 ;;                  1    wreg      void 
  4533 ;; Registers used:
  4534 ;;		wreg, fsr2l, fsr2h, status,2, status,0, prodl, prodh
  4535 ;; Tracked objects:
  4536 ;;		On entry : 0/0
  4537 ;;		On exit  : 0/0
  4538 ;;		Unchanged: 0/0
  4539 ;; Data sizes:     COMRAM   BANK0   BANK1   BANK2   BANK3   BANK4   BANK5   BANK6   BANK7
  4540 ;;      Params:         0       0       0       0       0       0       0       0       0
  4541 ;;      Locals:         2       0       0       0       0       0       0       0       0
  4542 ;;      Temps:          1       0       0       0       0       0       0       0       0
  4543 ;;      Totals:         3       0       0       0       0       0       0       0       0
  4544 ;;Total ram usage:        3 bytes
  4545 ;; Hardware stack levels used:    1
  4546 ;; Hardware stack levels required when called:    1
  4547 ;; This function calls:
  4548 ;;		Nothing
  4549 ;; This function is called by:
  4550 ;;		_USBCheckStdRequest
  4551 ;; This function uses a non-reentrant model
  4552 ;;
  4553                           
  4554                           	psect	text15
  4555  00144A                     __ptext15:
  4556                           	opt stack 0
  4557  00144A                     _USBStdGetStatusHandler:
  4558                           	opt stack 25
  4559                           
  4560                           ;usb_device.c: 2138: CtrlTrfData[0] = 0;
  4561                           
  4562                           ;incstack = 0
  4563  00144A  0E00               	movlw	0
  4564  00144C  0104               	movlb	4	; () banked
  4565  00144E  6F28               	movwf	40,b	;volatile
  4566                           
  4567                           ;usb_device.c: 2139: CtrlTrfData[1] = 0;
  4568  001450  0E00               	movlw	0
  4569  001452  6F29               	movwf	41,b	;volatile
  4570                           
  4571                           ;usb_device.c: 2141: switch(SetupPkt.Recipient)
  4572  001454  D033               	goto	l385
  4573  001456                     l386:
  4574                           
  4575                           ; BSR set to: 4
  4576                           ;usb_device.c: 2144: inPipes[0].info.bits.busy = 1;
  4577  001456  8E0C               	bsf	_inPipes+3,7,c
  4578                           
  4579                           ; BSR set to: 4
  4580                           ;usb_device.c: 2152: }
  4581                           ;usb_device.c: 2154: if(RemoteWakeup == 1)
  4582                           
  4583                           ; BSR set to: 4
  4584                           
  4585                           ; BSR set to: 4
  4586                           ;usb_device.c: 2150: {
  4587                           ;usb_device.c: 2151: CtrlTrfData[0]|=0x01;
  4588                           
  4589                           ;usb_device.c: 2149: if(0 == 1)
  4590  001458  0429               	decf	_RemoteWakeup,w,c
  4591  00145A  A4D8               	btfss	status,2,c
  4592  00145C  D03A               	goto	l389
  4593                           
  4594                           ; BSR set to: 4
  4595                           ;usb_device.c: 2155: {
  4596                           ;usb_device.c: 2156: CtrlTrfData[0]|=0x02;
  4597  00145E  8328               	bsf	40,1,b	;volatile
  4598                           
  4599                           ; BSR set to: 4
  4600                           ;usb_device.c: 2157: }
  4601                           ;usb_device.c: 2158: break;
  4602  001460  D038               	goto	l389
  4603  001462                     l390:
  4604                           
  4605                           ; BSR set to: 4
  4606                           ;usb_device.c: 2160: inPipes[0].info.bits.busy = 1;
  4607  001462  8E0C               	bsf	_inPipes+3,7,c
  4608                           
  4609                           ;usb_device.c: 2161: break;
  4610  001464  D036               	goto	l389
  4611  001466                     l391:
  4612                           
  4613                           ; BSR set to: 4
  4614                           ;usb_device.c: 2163: inPipes[0].info.bits.busy = 1;
  4615  001466  8E0C               	bsf	_inPipes+3,7,c
  4616                           
  4617                           ;usb_device.c: 2167: {
  4618                           ;usb_device.c: 2168: BDT_ENTRY *p;
  4619                           ;usb_device.c: 2170: if(SetupPkt.EPDir == 0)
  4620  001468  BF24               	btfsc	36,7,b	;volatile
  4621  00146A  D00A               	goto	l392
  4622                           
  4623                           ; BSR set to: 4
  4624                           ;usb_device.c: 2171: {
  4625                           ;usb_device.c: 2172: p = (BDT_ENTRY*)pBDTEntryOut[SetupPkt.EPNum];
  4626  00146C  5124               	movf	36,w,b	;volatile
  4627  00146E  0B0F               	andlw	15
  4628  001470  6E42               	movwf	??_USBStdGetStatusHandler& (0+255),c
  4629  001472  5042               	movf	??_USBStdGetStatusHandler,w,c
  4630  001474  0D02               	mullw	2
  4631  001476  0E70               	movlw	low _pBDTEntryOut
  4632  001478  24F3               	addwf	prodl,w,c
  4633  00147A  6ED9               	movwf	fsr2l,c
  4634  00147C  0E00               	movlw	high _pBDTEntryOut
  4635  00147E  D009               	goto	L2
  4636  001480                     l392:
  4637                           
  4638                           ; BSR set to: 4
  4639                           ;usb_device.c: 2174: else
  4640                           ;usb_device.c: 2175: {
  4641                           ;usb_device.c: 2176: p = (BDT_ENTRY*)pBDTEntryIn[SetupPkt.EPNum];
  4642                           
  4643                           ; BSR set to: 4
  4644  001480  5124               	movf	36,w,b	;volatile
  4645  001482  0B0F               	andlw	15
  4646  001484  6E42               	movwf	??_USBStdGetStatusHandler& (0+255),c
  4647  001486  5042               	movf	??_USBStdGetStatusHandler,w,c
  4648  001488  0D02               	mullw	2
  4649  00148A  0E0F               	movlw	low _pBDTEntryIn
  4650  00148C  24F3               	addwf	prodl,w,c
  4651  00148E  6ED9               	movwf	fsr2l,c
  4652  001490  0E00               	movlw	high _pBDTEntryIn
  4653  001492                     L2:
  4654  001492  20F4               	addwfc	prodh,w,c
  4655  001494  6EDA               	movwf	fsr2h,c
  4656  001496  CFDE F043          	movff	postinc2,USBStdGetStatusHandler@p
  4657  00149A  CFDD F044          	movff	postdec2,USBStdGetStatusHandler@p+1
  4658                           
  4659                           ; BSR set to: 4
  4660                           ;usb_device.c: 2177: }
  4661                           ;usb_device.c: 2179: if((p->STAT.UOWN == 1) && (p->STAT.BSTALL == 1))
  4662                           
  4663                           ; BSR set to: 4
  4664  00149E  C043  FFD9         	movff	USBStdGetStatusHandler@p,fsr2l
  4665  0014A2  C044  FFDA         	movff	USBStdGetStatusHandler@p+1,fsr2h
  4666  0014A6  AEDF               	btfss	indf2,7,c
  4667  0014A8  D014               	goto	l389
  4668                           
  4669                           ; BSR set to: 4
  4670  0014AA  C043  FFD9         	movff	USBStdGetStatusHandler@p,fsr2l
  4671  0014AE  C044  FFDA         	movff	USBStdGetStatusHandler@p+1,fsr2h
  4672  0014B2  A4DF               	btfss	indf2,2,c
  4673  0014B4  D00E               	goto	l389
  4674                           
  4675                           ; BSR set to: 4
  4676                           ;usb_device.c: 2180: CtrlTrfData[0]=0x01;
  4677  0014B6  0E01               	movlw	1
  4678  0014B8  6F28               	movwf	40,b	;volatile
  4679                           
  4680                           ; BSR set to: 4
  4681                           ;usb_device.c: 2182: }
  4682                           ;usb_device.c: 2183: }
  4683                           
  4684                           ; BSR set to: 4
  4685                           ;usb_device.c: 2181: break;
  4686  0014BA  D00B               	goto	l389
  4687  0014BC                     l385:
  4688                           
  4689                           ; BSR set to: 4
  4690                           
  4691                           ; BSR set to: 4
  4692  0014BC  5120               	movf	32,w,b	;volatile
  4693  0014BE  0B1F               	andlw	31
  4694                           
  4695                           ; Switch size 1, requested type "space"
  4696                           ; Number of cases is 3, Range of values is 0 to 2
  4697                           ; switch strategies available:
  4698                           ; Name         Instructions Cycles
  4699                           ; simple_byte           10     6 (average)
  4700                           ;	Chosen strategy is simple_byte
  4701  0014C0  0A00               	xorlw	0	; case 0
  4702  0014C2  B4D8               	btfsc	status,2,c
  4703  0014C4  D7C8               	goto	l386
  4704  0014C6  0A01               	xorlw	1	; case 1
  4705  0014C8  B4D8               	btfsc	status,2,c
  4706  0014CA  D7CB               	goto	l390
  4707  0014CC  0A03               	xorlw	3	; case 2
  4708  0014CE  B4D8               	btfsc	status,2,c
  4709  0014D0  D7CA               	goto	l391
  4710  0014D2                     l389:
  4711                           
  4712                           ; BSR set to: 4
  4713                           ;usb_device.c: 2185: if(inPipes[0].info.bits.busy == 1)
  4714  0014D2  AE0C               	btfss	_inPipes+3,7,c
  4715  0014D4  0012               	return	
  4716                           
  4717                           ; BSR set to: 4
  4718                           ;usb_device.c: 2186: {
  4719                           ;usb_device.c: 2187: inPipes[0].pSrc.bRam = (uint8_t*)&CtrlTrfData;
  4720  0014D6  0E28               	movlw	40
  4721  0014D8  6E09               	movwf	_inPipes,c
  4722  0014DA  0E04               	movlw	4
  4723  0014DC  6E0A               	movwf	_inPipes+1,c
  4724                           
  4725                           ; BSR set to: 4
  4726                           ;usb_device.c: 2188: inPipes[0].info.bits.ctrl_trf_mem = 0x01;
  4727  0014DE  800C               	bsf	_inPipes+3,0,c
  4728                           
  4729                           ; BSR set to: 4
  4730                           ;usb_device.c: 2189: inPipes[0].wCount.v[0] = 2;
  4731  0014E0  0E02               	movlw	2
  4732  0014E2  6E0D               	movwf	_inPipes+4,c
  4733  0014E4  0012               	return	
  4734  0014E6                     __end_of_USBStdGetStatusHandler:
  4735                           	opt stack 0
  4736                           tblptru	equ	0xFF8
  4737                           tblptrh	equ	0xFF7
  4738                           tblptrl	equ	0xFF6
  4739                           tablat	equ	0xFF5
  4740                           prodh	equ	0xFF4
  4741                           prodl	equ	0xFF3
  4742                           postinc0	equ	0xFEE
  4743                           wreg	equ	0xFE8
  4744                           indf2	equ	0xFDF
  4745                           postinc2	equ	0xFDE
  4746                           postdec2	equ	0xFDD
  4747                           plusw2	equ	0xFDB
  4748                           fsr2h	equ	0xFDA
  4749                           fsr2l	equ	0xFD9
  4750                           status	equ	0xFD8
  4751                           
  4752 ;; *************** function _USBStdGetDscHandler *****************
  4753 ;; Defined at:
  4754 ;;		line 2050 in file "../../../../../../framework/usb/src/usb_device.c"
  4755 ;; Parameters:    Size  Location     Type
  4756 ;;		None
  4757 ;; Auto vars:     Size  Location     Type
  4758 ;;		None
  4759 ;; Return value:  Size  Location     Type
  4760 ;;                  1    wreg      void 
  4761 ;; Registers used:
  4762 ;;		wreg, fsr0l, fsr0h, status,2, status,0, tblptrl, tblptrh, tblptru, prodl, prodh
  4763 ;; Tracked objects:
  4764 ;;		On entry : 0/0
  4765 ;;		On exit  : 0/0
  4766 ;;		Unchanged: 0/0
  4767 ;; Data sizes:     COMRAM   BANK0   BANK1   BANK2   BANK3   BANK4   BANK5   BANK6   BANK7
  4768 ;;      Params:         0       0       0       0       0       0       0       0       0
  4769 ;;      Locals:         0       0       0       0       0       0       0       0       0
  4770 ;;      Temps:          2       0       0       0       0       0       0       0       0
  4771 ;;      Totals:         2       0       0       0       0       0       0       0       0
  4772 ;;Total ram usage:        2 bytes
  4773 ;; Hardware stack levels used:    1
  4774 ;; Hardware stack levels required when called:    1
  4775 ;; This function calls:
  4776 ;;		Nothing
  4777 ;; This function is called by:
  4778 ;;		_USBCheckStdRequest
  4779 ;; This function uses a non-reentrant model
  4780 ;;
  4781                           
  4782                           	psect	text16
  4783  000A80                     __ptext16:
  4784                           	opt stack 0
  4785  000A80                     _USBStdGetDscHandler:
  4786                           	opt stack 25
  4787                           
  4788                           ;usb_device.c: 2052: if(SetupPkt.bmRequestType == 0x80)
  4789                           
  4790                           ; BSR set to: 4
  4791                           ;incstack = 0
  4792  000A80  0E80               	movlw	128
  4793  000A82  0104               	movlb	4	; () banked
  4794  000A84  1920               	xorwf	32,w,b	;volatile
  4795  000A86  A4D8               	btfss	status,2,c
  4796  000A88  0012               	return	
  4797                           
  4798                           ; BSR set to: 4
  4799                           ;usb_device.c: 2053: {
  4800                           ;usb_device.c: 2054: inPipes[0].info.Val = 0x00 | 0x80 | 0x40;
  4801  000A8A  0EC0               	movlw	192
  4802  000A8C  6E0C               	movwf	_inPipes+3,c
  4803                           
  4804                           ;usb_device.c: 2056: switch(SetupPkt.bDescriptorType)
  4805  000A8E  D079               	goto	l372
  4806  000A90                     
  4807                           ; BSR set to: 4
  4808                           ;usb_device.c: 2062: inPipes[0].pSrc.bRom = (const uint8_t*)&device_dsc;
  4809                           
  4810                           ; BSR set to: 4
  4811  000A90  0EE8               	movlw	low _device_dsc
  4812  000A92  6E09               	movwf	_inPipes,c
  4813  000A94  0E7F               	movlw	high _device_dsc
  4814  000A96  6E0A               	movwf	_inPipes+1,c
  4815                           
  4816                           ; BSR set to: 4
  4817                           ;usb_device.c: 2064: inPipes[0].wCount.Val = sizeof(device_dsc);
  4818  000A98  0E00               	movlw	0
  4819  000A9A  6E0E               	movwf	_inPipes+5,c
  4820  000A9C  0E12               	movlw	18
  4821  000A9E  6E0D               	movwf	_inPipes+4,c
  4822                           
  4823                           ;usb_device.c: 2065: break;
  4824  000AA0  0012               	return	
  4825  000AA2                     
  4826                           ; BSR set to: 4
  4827                           ;usb_device.c: 2070: if(SetupPkt.bDscIndex < 1)
  4828                           
  4829                           ; BSR set to: 4
  4830  000AA2  5122               	movf	34,w,b	;volatile
  4831  000AA4  A4D8               	btfss	status,2,c
  4832  000AA6  D03D               	goto	l376
  4833                           
  4834                           ; BSR set to: 4
  4835                           ;usb_device.c: 2071: {
  4836                           ;usb_device.c: 2075: inPipes[0].pSrc.bRom = *(USB_CD_Ptr+SetupPkt.bDscIndex);
  4837  000AA8  5122               	movf	34,w,b	;volatile
  4838  000AAA  0D02               	mullw	2
  4839  000AAC  0E67               	movlw	low _USB_CD_Ptr
  4840  000AAE  24F3               	addwf	prodl,w,c
  4841  000AB0  6EF6               	movwf	tblptrl,c
  4842  000AB2  0E7A               	movlw	high _USB_CD_Ptr
  4843  000AB4  20F4               	addwfc	prodh,w,c
  4844  000AB6  6EF7               	movwf	tblptrh,c
  4845  000AB8                     	if	0	;There are less than 3 active tblptr bytes
  4846  000AB8                     	endif
  4847  000AB8  0009               	tblrd		*+
  4848  000ABA  CFF5 F009          	movff	tablat,_inPipes
  4849  000ABE  000A               	tblrd		*-
  4850  000AC0  CFF5 F00A          	movff	tablat,_inPipes+1
  4851                           
  4852                           ; BSR set to: 4
  4853                           ;usb_device.c: 2081: inPipes[0].wCount.byte.LB = *(inPipes[0].pSrc.bRom+2);
  4854  000AC4  0E02               	movlw	2
  4855  000AC6  2409               	addwf	_inPipes,w,c
  4856  000AC8  6E42               	movwf	??_USBStdGetDscHandler& (0+255),c
  4857  000ACA  0E00               	movlw	0
  4858  000ACC  200A               	addwfc	_inPipes+1,w,c
  4859  000ACE  6E43               	movwf	(??_USBStdGetDscHandler+1)& (0+255),c
  4860  000AD0  C042  FFF6         	movff	??_USBStdGetDscHandler,tblptrl
  4861  000AD4  C043  FFF7         	movff	??_USBStdGetDscHandler+1,tblptrh
  4862  000AD8  6AF8               	clrf	tblptru,c
  4863  000ADA  0E07               	movlw	(high __ramtop+-1)
  4864  000ADC  64F7               	cpfsgt	tblptrh,c
  4865  000ADE  D003               	bra	u4337
  4866  000AE0  0008               	tblrd		*
  4867  000AE2  50F5               	movf	tablat,w,c
  4868  000AE4  D005               	bra	u4330
  4869  000AE6                     u4337:
  4870  000AE6  CFF6 FFE9          	movff	tblptrl,fsr0l
  4871  000AEA  CFF7 FFEA          	movff	tblptrh,fsr0h
  4872  000AEE  50EF               	movf	indf0,w,c
  4873  000AF0                     u4330:
  4874  000AF0  6E0D               	movwf	_inPipes+4,c
  4875                           
  4876                           ;usb_device.c: 2082: inPipes[0].wCount.byte.HB = *(inPipes[0].pSrc.bRom+3);
  4877  000AF2  0E03               	movlw	3
  4878  000AF4  2409               	addwf	_inPipes,w,c
  4879  000AF6  6E42               	movwf	??_USBStdGetDscHandler& (0+255),c
  4880  000AF8  0E00               	movlw	0
  4881  000AFA  200A               	addwfc	_inPipes+1,w,c
  4882  000AFC  6E43               	movwf	(??_USBStdGetDscHandler+1)& (0+255),c
  4883  000AFE  C042  FFF6         	movff	??_USBStdGetDscHandler,tblptrl
  4884  000B02  C043  FFF7         	movff	??_USBStdGetDscHandler+1,tblptrh
  4885  000B06  6AF8               	clrf	tblptru,c
  4886  000B08  0E07               	movlw	(high __ramtop+-1)
  4887  000B0A  64F7               	cpfsgt	tblptrh,c
  4888  000B0C  D003               	bra	u4347
  4889  000B0E  0008               	tblrd		*
  4890  000B10  50F5               	movf	tablat,w,c
  4891  000B12  D005               	bra	u4340
  4892  000B14                     u4347:
  4893  000B14  CFF6 FFE9          	movff	tblptrl,fsr0l
  4894  000B18  CFF7 FFEA          	movff	tblptrh,fsr0h
  4895  000B1C  50EF               	movf	indf0,w,c
  4896  000B1E                     u4340:
  4897  000B1E  6E0E               	movwf	_inPipes+5,c
  4898                           
  4899                           ;usb_device.c: 2083: }
  4900  000B20  0012               	return	
  4901  000B22                     l376:
  4902                           
  4903                           ;usb_device.c: 2084: else
  4904                           ;usb_device.c: 2085: {
  4905                           ;usb_device.c: 2086: inPipes[0].info.Val = 0;
  4906  000B22  0E00               	movlw	0
  4907  000B24  6E0C               	movwf	_inPipes+3,c
  4908                           
  4909                           ;usb_device.c: 2087: }
  4910                           ;usb_device.c: 2088: break;
  4911  000B26  0012               	return	
  4912  000B28                     
  4913                           ;usb_device.c: 2093: if(SetupPkt.bDscIndex<3)
  4914  000B28  0E03               	movlw	3
  4915  000B2A  0104               	movlb	4	; () banked
  4916  000B2C  6122               	cpfslt	34,b	;volatile
  4917  000B2E  D023               	goto	l379
  4918                           
  4919                           ; BSR set to: 4
  4920                           ;usb_device.c: 2094: {
  4921                           ;usb_device.c: 2096: inPipes[0].pSrc.bRom = *(USB_SD_Ptr+SetupPkt.bDscIndex);
  4922  000B30  5122               	movf	34,w,b	;volatile
  4923  000B32  0D02               	mullw	2
  4924  000B34  0E61               	movlw	low _USB_SD_Ptr
  4925  000B36  24F3               	addwf	prodl,w,c
  4926  000B38  6EF6               	movwf	tblptrl,c
  4927  000B3A  0E7A               	movlw	high _USB_SD_Ptr
  4928  000B3C  20F4               	addwfc	prodh,w,c
  4929  000B3E  6EF7               	movwf	tblptrh,c
  4930  000B40                     	if	0	;There are less than 3 active tblptr bytes
  4931  000B40                     	endif
  4932  000B40  0009               	tblrd		*+
  4933  000B42  CFF5 F009          	movff	tablat,_inPipes
  4934  000B46  000A               	tblrd		*-
  4935  000B48  CFF5 F00A          	movff	tablat,_inPipes+1
  4936                           
  4937                           ; BSR set to: 4
  4938                           ;usb_device.c: 2098: inPipes[0].wCount.Val = *inPipes[0].pSrc.bRom;
  4939  000B4C  C009  FFF6         	movff	_inPipes,tblptrl
  4940  000B50  C00A  FFF7         	movff	_inPipes+1,tblptrh
  4941  000B54  6AF8               	clrf	tblptru,c
  4942  000B56  0E07               	movlw	(high __ramtop+-1)
  4943  000B58  64F7               	cpfsgt	tblptrh,c
  4944  000B5A  D003               	bra	u4367
  4945  000B5C  0008               	tblrd		*
  4946  000B5E  50F5               	movf	tablat,w,c
  4947  000B60  D005               	bra	u4360
  4948  000B62                     u4367:
  4949  000B62  CFF6 FFE9          	movff	tblptrl,fsr0l
  4950  000B66  CFF7 FFEA          	movff	tblptrh,fsr0h
  4951  000B6A  50EF               	movf	indf0,w,c
  4952  000B6C                     u4360:
  4953  000B6C  6E42               	movwf	??_USBStdGetDscHandler& (0+255),c
  4954  000B6E  5042               	movf	??_USBStdGetDscHandler,w,c
  4955  000B70  6E0D               	movwf	_inPipes+4,c
  4956  000B72  6A0E               	clrf	_inPipes+5,c
  4957                           
  4958                           ;usb_device.c: 2099: }
  4959  000B74  0012               	return	
  4960  000B76                     l379:
  4961                           
  4962                           ;usb_device.c: 2109: else
  4963                           ;usb_device.c: 2110: {
  4964                           ;usb_device.c: 2111: inPipes[0].info.Val = 0;
  4965  000B76  0E00               	movlw	0
  4966  000B78  6E0C               	movwf	_inPipes+3,c
  4967                           
  4968                           ;usb_device.c: 2112: }
  4969                           ;usb_device.c: 2113: break;
  4970  000B7A  0012               	return	
  4971  000B7C                     
  4972                           ;usb_device.c: 2115: inPipes[0].info.Val = 0;
  4973  000B7C  0E00               	movlw	0
  4974  000B7E  6E0C               	movwf	_inPipes+3,c
  4975                           
  4976                           ;usb_device.c: 2117: }
  4977                           
  4978                           ;usb_device.c: 2116: break;
  4979  000B80  0012               	return	
  4980  000B82                     l372:
  4981  000B82  0104               	movlb	4	; () banked
  4982  000B84  5123               	movf	35,w,b	;volatile
  4983                           
  4984                           ; Switch size 1, requested type "space"
  4985                           ; Number of cases is 3, Range of values is 1 to 3
  4986                           ; switch strategies available:
  4987                           ; Name         Instructions Cycles
  4988                           ; simple_byte           10     6 (average)
  4989                           ;	Chosen strategy is simple_byte
  4990  000B86  0A01               	xorlw	1	; case 1
  4991  000B88  B4D8               	btfsc	status,2,c
  4992  000B8A  D782               	goto	l373
  4993  000B8C  0A03               	xorlw	3	; case 2
  4994  000B8E  B4D8               	btfsc	status,2,c
  4995  000B90  D788               	goto	l375
  4996  000B92  0A01               	xorlw	1	; case 3
  4997  000B94  B4D8               	btfsc	status,2,c
  4998  000B96  D7C8               	goto	l378
  4999  000B98  D7F1               	goto	l381
  5000  000B9A                     __end_of_USBStdGetDscHandler:
  5001                           	opt stack 0
  5002                           tblptru	equ	0xFF8
  5003                           tblptrh	equ	0xFF7
  5004                           tblptrl	equ	0xFF6
  5005                           tablat	equ	0xFF5
  5006                           prodh	equ	0xFF4
  5007                           prodl	equ	0xFF3
  5008                           indf0	equ	0xFEF
  5009                           postinc0	equ	0xFEE
  5010                           fsr0h	equ	0xFEA
  5011                           fsr0l	equ	0xFE9
  5012                           wreg	equ	0xFE8
  5013                           indf2	equ	0xFDF
  5014                           postinc2	equ	0xFDE
  5015                           postdec2	equ	0xFDD
  5016                           plusw2	equ	0xFDB
  5017                           fsr2h	equ	0xFDA
  5018                           fsr2l	equ	0xFD9
  5019                           status	equ	0xFD8
  5020                           
  5021 ;; *************** function _USBStdFeatureReqHandler *****************
  5022 ;; Defined at:
  5023 ;;		line 2761 in file "../../../../../../framework/usb/src/usb_device.c"
  5024 ;; Parameters:    Size  Location     Type
  5025 ;;		None
  5026 ;; Auto vars:     Size  Location     Type
  5027 ;;  p               2   14[BANK0 ] PTR struct __BDT
  5028 ;;		 -> RAM(2047), NULL(0), BDT(32), 
  5029 ;;  pUEP            2   11[BANK0 ] PTR unsigned char 
  5030 ;;		 -> UEP0(1), 
  5031 ;;  current_ep_d    1   13[BANK0 ] struct .
  5032 ;; Return value:  Size  Location     Type
  5033 ;;                  1    wreg      void 
  5034 ;; Registers used:
  5035 ;;		wreg, fsr2l, fsr2h, status,2, status,0, prodl, prodh, cstack
  5036 ;; Tracked objects:
  5037 ;;		On entry : 0/0
  5038 ;;		On exit  : 0/0
  5039 ;;		Unchanged: 0/0
  5040 ;; Data sizes:     COMRAM   BANK0   BANK1   BANK2   BANK3   BANK4   BANK5   BANK6   BANK7
  5041 ;;      Params:         0       0       0       0       0       0       0       0       0
  5042 ;;      Locals:         0       5       0       0       0       0       0       0       0
  5043 ;;      Temps:          1       0       0       0       0       0       0       0       0
  5044 ;;      Totals:         1       5       0       0       0       0       0       0       0
  5045 ;;Total ram usage:        6 bytes
  5046 ;; Hardware stack levels used:    1
  5047 ;; Hardware stack levels required when called:    5
  5048 ;; This function calls:
  5049 ;;		_USER_USB_CALLBACK_EVENT_HANDLER
  5050 ;; This function is called by:
  5051 ;;		_USBCheckStdRequest
  5052 ;; This function uses a non-reentrant model
  5053 ;;
  5054                           
  5055                           	psect	text17
  5056  0000A2                     __ptext17:
  5057                           	opt stack 0
  5058  0000A2                     _USBStdFeatureReqHandler:
  5059                           	opt stack 21
  5060                           
  5061                           ;usb_device.c: 2763: BDT_ENTRY *p;
  5062                           ;usb_device.c: 2764: EP_STATUS current_ep_data;
  5063                           ;usb_device.c: 2768: unsigned char* pUEP;
  5064                           ;usb_device.c: 2806: if((SetupPkt.bFeature == 1)&&
  5065                           ;usb_device.c: 2807: (SetupPkt.Recipient == (0x00)))
  5066                           
  5067                           ;incstack = 0
  5068  0000A2  0104               	movlb	4	; () banked
  5069  0000A4  0522               	decf	34,w,b	;volatile
  5070  0000A6  A4D8               	btfss	status,2,c
  5071  0000A8  D00E               	goto	l465
  5072                           
  5073                           ; BSR set to: 4
  5074  0000AA  5120               	movf	32,w,b	;volatile
  5075  0000AC  0B1F               	andlw	31
  5076  0000AE  0900               	iorlw	0
  5077  0000B0  A4D8               	btfss	status,2,c
  5078  0000B2  D009               	goto	l465
  5079                           
  5080                           ; BSR set to: 4
  5081                           ;usb_device.c: 2808: {
  5082                           ;usb_device.c: 2809: inPipes[0].info.bits.busy = 1;
  5083  0000B4  8E0C               	bsf	_inPipes+3,7,c
  5084                           
  5085                           ; BSR set to: 4
  5086                           ;usb_device.c: 2810: if(SetupPkt.bRequest == 3)
  5087  0000B6  0E03               	movlw	3
  5088  0000B8  1921               	xorwf	33,w,b	;volatile
  5089  0000BA  A4D8               	btfss	status,2,c
  5090  0000BC  D002               	goto	l464
  5091                           
  5092                           ; BSR set to: 4
  5093                           ;usb_device.c: 2811: RemoteWakeup = 1;
  5094  0000BE  0E01               	movlw	1
  5095  0000C0  D001               	goto	L3
  5096  0000C2                     l464:
  5097                           
  5098                           ; BSR set to: 4
  5099                           ;usb_device.c: 2812: else
  5100                           ;usb_device.c: 2813: RemoteWakeup = 0;
  5101                           
  5102                           ; BSR set to: 4
  5103  0000C2  0E00               	movlw	0
  5104  0000C4                     L3:
  5105  0000C4  6E29               	movwf	_RemoteWakeup,c
  5106  0000C6                     l465:
  5107                           
  5108                           ; BSR set to: 4
  5109                           ;usb_device.c: 2814: }
  5110                           ;usb_device.c: 2817: if((SetupPkt.bFeature == 0)&&
  5111                           ;usb_device.c: 2818: (SetupPkt.Recipient == (0x02))&&
  5112                           ;usb_device.c: 2819: (SetupPkt.EPNum != 0) && (SetupPkt.EPNum <= 1)&&
  5113                           ;usb_device.c: 2820: (USBDeviceState == CONFIGURED_STATE))
  5114                           
  5115                           ; BSR set to: 4
  5116  0000C6  5122               	movf	34,w,b	;volatile
  5117  0000C8  A4D8               	btfss	status,2,c
  5118  0000CA  0012               	return	
  5119                           
  5120                           ; BSR set to: 4
  5121  0000CC  5120               	movf	32,w,b	;volatile
  5122  0000CE  0B1F               	andlw	31
  5123  0000D0  0A02               	xorlw	2
  5124  0000D2  A4D8               	btfss	status,2,c
  5125  0000D4  0012               	return	
  5126                           
  5127                           ; BSR set to: 4
  5128  0000D6  5124               	movf	36,w,b	;volatile
  5129  0000D8  0B0F               	andlw	15
  5130  0000DA  0900               	iorlw	0
  5131  0000DC  B4D8               	btfsc	status,2,c
  5132  0000DE  0012               	return	
  5133                           
  5134                           ; BSR set to: 4
  5135  0000E0  5124               	movf	36,w,b	;volatile
  5136  0000E2  0B0F               	andlw	15
  5137  0000E4  6E4B               	movwf	??_USBStdFeatureReqHandler& (0+255),c
  5138  0000E6  0E02               	movlw	2
  5139  0000E8  604B               	cpfslt	??_USBStdFeatureReqHandler,c
  5140  0000EA  0012               	return	
  5141                           
  5142                           ; BSR set to: 4
  5143  0000EC  0E20               	movlw	32
  5144  0000EE  182C               	xorwf	_USBDeviceState,w,c
  5145  0000F0  A4D8               	btfss	status,2,c
  5146  0000F2  0012               	return	
  5147                           
  5148                           ; BSR set to: 4
  5149                           ;usb_device.c: 2821: {
  5150                           ;usb_device.c: 2824: inPipes[0].info.bits.busy = 1;
  5151  0000F4  8E0C               	bsf	_inPipes+3,7,c
  5152                           
  5153                           ;usb_device.c: 2827: if(SetupPkt.EPDir == 0)
  5154  0000F6  BF24               	btfsc	36,7,b	;volatile
  5155  0000F8  D019               	goto	l467
  5156                           
  5157                           ; BSR set to: 4
  5158                           ;usb_device.c: 2828: {
  5159                           ;usb_device.c: 2829: p = (BDT_ENTRY*)pBDTEntryOut[SetupPkt.EPNum];
  5160  0000FA  5124               	movf	36,w,b	;volatile
  5161  0000FC  0B0F               	andlw	15
  5162  0000FE  6E4B               	movwf	??_USBStdFeatureReqHandler& (0+255),c
  5163  000100  504B               	movf	??_USBStdFeatureReqHandler,w,c
  5164  000102  0D02               	mullw	2
  5165  000104  0E70               	movlw	low _pBDTEntryOut
  5166  000106  24F3               	addwf	prodl,w,c
  5167  000108  6ED9               	movwf	fsr2l,c
  5168  00010A  0E00               	movlw	high _pBDTEntryOut
  5169  00010C  20F4               	addwfc	prodh,w,c
  5170  00010E  6EDA               	movwf	fsr2h,c
  5171  000110  CFDE F0D4          	movff	postinc2,USBStdFeatureReqHandler@p
  5172  000114  CFDD F0D5          	movff	postdec2,USBStdFeatureReqHandler@p+1
  5173                           
  5174                           ;usb_device.c: 2830: current_ep_data.Val = ep_data_out[SetupPkt.EPNum].Val;
  5175  000118  5124               	movf	36,w,b	;volatile
  5176  00011A  0B0F               	andlw	15
  5177  00011C  6E4B               	movwf	??_USBStdFeatureReqHandler& (0+255),c
  5178  00011E  504B               	movf	??_USBStdFeatureReqHandler,w,c
  5179  000120  0D01               	mullw	1
  5180  000122  0E76               	movlw	low _ep_data_out
  5181  000124  24F3               	addwf	prodl,w,c
  5182  000126  6ED9               	movwf	fsr2l,c
  5183  000128  0E00               	movlw	high _ep_data_out
  5184  00012A  D019               	goto	L4
  5185  00012C                     l467:
  5186                           
  5187                           ;usb_device.c: 2832: else
  5188                           ;usb_device.c: 2833: {
  5189                           ;usb_device.c: 2834: p = (BDT_ENTRY*)pBDTEntryIn[SetupPkt.EPNum];
  5190                           
  5191                           ; BSR set to: 0
  5192  00012C  0104               	movlb	4	; () banked
  5193  00012E  5124               	movf	36,w,b	;volatile
  5194  000130  0B0F               	andlw	15
  5195  000132  6E4B               	movwf	??_USBStdFeatureReqHandler& (0+255),c
  5196  000134  504B               	movf	??_USBStdFeatureReqHandler,w,c
  5197  000136  0D02               	mullw	2
  5198  000138  0E0F               	movlw	low _pBDTEntryIn
  5199  00013A  24F3               	addwf	prodl,w,c
  5200  00013C  6ED9               	movwf	fsr2l,c
  5201  00013E  0E00               	movlw	high _pBDTEntryIn
  5202  000140  20F4               	addwfc	prodh,w,c
  5203  000142  6EDA               	movwf	fsr2h,c
  5204  000144  CFDE F0D4          	movff	postinc2,USBStdFeatureReqHandler@p
  5205  000148  CFDD F0D5          	movff	postdec2,USBStdFeatureReqHandler@p+1
  5206                           
  5207                           ;usb_device.c: 2835: current_ep_data.Val = ep_data_in[SetupPkt.EPNum].Val;
  5208  00014C  5124               	movf	36,w,b	;volatile
  5209  00014E  0B0F               	andlw	15
  5210  000150  6E4B               	movwf	??_USBStdFeatureReqHandler& (0+255),c
  5211  000152  504B               	movf	??_USBStdFeatureReqHandler,w,c
  5212  000154  0D01               	mullw	1
  5213  000156  0E78               	movlw	low _ep_data_in
  5214  000158  24F3               	addwf	prodl,w,c
  5215  00015A  6ED9               	movwf	fsr2l,c
  5216  00015C  0E00               	movlw	high _ep_data_in
  5217  00015E                     L4:
  5218  00015E  20F4               	addwfc	prodh,w,c
  5219  000160  6EDA               	movwf	fsr2h,c
  5220  000162  50DF               	movf	indf2,w,c
  5221  000164  0100               	movlb	0	; () banked
  5222  000166  6FD3               	movwf	USBStdFeatureReqHandler@current_ep_data& (0+255),b
  5223                           
  5224                           ; BSR set to: 0
  5225                           ;usb_device.c: 2836: }
  5226                           ;usb_device.c: 2842: if(current_ep_data.bits.ping_pong_state == 0)
  5227                           
  5228                           ; BSR set to: 0
  5229  000168  B1D3               	btfsc	USBStdFeatureReqHandler@current_ep_data& (0+255),0,b
  5230  00016A  D006               	goto	l469
  5231                           
  5232                           ; BSR set to: 0
  5233                           ;usb_device.c: 2843: {
  5234                           ;usb_device.c: 2844: p = (BDT_ENTRY*)(((uintptr_t)p) & (~0x0004));
  5235  00016C  0EFB               	movlw	251
  5236  00016E  15D4               	andwf	USBStdFeatureReqHandler@p& (0+255),w,b
  5237  000170  6FD4               	movwf	USBStdFeatureReqHandler@p& (0+255),b
  5238  000172  0EFF               	movlw	255
  5239  000174  15D5               	andwf	(USBStdFeatureReqHandler@p+1)& (0+255),w,b
  5240  000176  D004               	goto	L5
  5241  000178                     l469:
  5242                           
  5243                           ; BSR set to: 0
  5244                           ;usb_device.c: 2846: else
  5245                           ;usb_device.c: 2847: {
  5246                           ;usb_device.c: 2848: p = (BDT_ENTRY*)(((uintptr_t)p) | 0x0004);
  5247                           
  5248                           ; BSR set to: 0
  5249  000178  0E04               	movlw	4
  5250  00017A  11D4               	iorwf	USBStdFeatureReqHandler@p& (0+255),w,b
  5251  00017C  6FD4               	movwf	USBStdFeatureReqHandler@p& (0+255),b
  5252  00017E  51D5               	movf	(USBStdFeatureReqHandler@p+1)& (0+255),w,b
  5253  000180                     L5:
  5254  000180  6FD5               	movwf	(USBStdFeatureReqHandler@p+1)& (0+255),b
  5255                           
  5256                           ; BSR set to: 0
  5257                           ;usb_device.c: 2849: }
  5258                           ;usb_device.c: 2854: if(SetupPkt.EPDir == 0)
  5259                           
  5260                           ; BSR set to: 0
  5261  000182  0104               	movlb	4	; () banked
  5262  000184  BF24               	btfsc	36,7,b	;volatile
  5263  000186  D00A               	goto	l471
  5264                           
  5265                           ; BSR set to: 4
  5266                           ;usb_device.c: 2855: {
  5267                           ;usb_device.c: 2856: pBDTEntryOut[SetupPkt.EPNum] = (volatile BDT_ENTRY *)p;
  5268  000188  5124               	movf	36,w,b	;volatile
  5269  00018A  0B0F               	andlw	15
  5270  00018C  6E4B               	movwf	??_USBStdFeatureReqHandler& (0+255),c
  5271  00018E  504B               	movf	??_USBStdFeatureReqHandler,w,c
  5272  000190  0D02               	mullw	2
  5273  000192  0E70               	movlw	low _pBDTEntryOut
  5274  000194  24F3               	addwf	prodl,w,c
  5275  000196  6ED9               	movwf	fsr2l,c
  5276  000198  0E00               	movlw	high _pBDTEntryOut
  5277  00019A  D009               	goto	L6
  5278  00019C                     l471:
  5279                           
  5280                           ; BSR set to: 4
  5281                           ;usb_device.c: 2858: else
  5282                           ;usb_device.c: 2859: {
  5283                           ;usb_device.c: 2860: pBDTEntryIn[SetupPkt.EPNum] = (volatile BDT_ENTRY *)p;
  5284                           
  5285                           ; BSR set to: 4
  5286  00019C  5124               	movf	36,w,b	;volatile
  5287  00019E  0B0F               	andlw	15
  5288  0001A0  6E4B               	movwf	??_USBStdFeatureReqHandler& (0+255),c
  5289  0001A2  504B               	movf	??_USBStdFeatureReqHandler,w,c
  5290  0001A4  0D02               	mullw	2
  5291  0001A6  0E0F               	movlw	low _pBDTEntryIn
  5292  0001A8  24F3               	addwf	prodl,w,c
  5293  0001AA  6ED9               	movwf	fsr2l,c
  5294  0001AC  0E00               	movlw	high _pBDTEntryIn
  5295  0001AE                     L6:
  5296  0001AE  20F4               	addwfc	prodh,w,c
  5297  0001B0  6EDA               	movwf	fsr2h,c
  5298  0001B2  C0D4  FFDE         	movff	USBStdFeatureReqHandler@p,postinc2
  5299  0001B6  C0D5  FFDD         	movff	USBStdFeatureReqHandler@p+1,postdec2
  5300                           
  5301                           ; BSR set to: 4
  5302                           ;usb_device.c: 2861: }
  5303                           ;usb_device.c: 2864: if(SetupPkt.bRequest == 3)
  5304                           
  5305                           ; BSR set to: 4
  5306  0001BA  0E03               	movlw	3
  5307  0001BC  1921               	xorwf	33,w,b	;volatile
  5308  0001BE  A4D8               	btfss	status,2,c
  5309  0001C0  D02F               	goto	l473
  5310                           
  5311                           ; BSR set to: 4
  5312                           ;usb_device.c: 2865: {
  5313                           ;usb_device.c: 2866: if(p->STAT.UOWN == 1)
  5314  0001C2  C0D4  FFD9         	movff	USBStdFeatureReqHandler@p,fsr2l
  5315  0001C6  C0D5  FFDA         	movff	USBStdFeatureReqHandler@p+1,fsr2h
  5316  0001CA  0100               	movlb	0	; () banked
  5317  0001CC  AEDF               	btfss	indf2,7,c
  5318  0001CE  D01B               	goto	l476
  5319                           
  5320                           ; BSR set to: 0
  5321                           ;usb_device.c: 2867: {
  5322                           ;usb_device.c: 2870: if(SetupPkt.EPDir == 0)
  5323  0001D0  0104               	movlb	4	; () banked
  5324  0001D2  BF24               	btfsc	36,7,b	;volatile
  5325  0001D4  D00A               	goto	l475
  5326                           
  5327                           ; BSR set to: 4
  5328                           ;usb_device.c: 2871: {
  5329                           ;usb_device.c: 2872: ep_data_out[SetupPkt.EPNum].bits.transfer_terminated = 1;
  5330  0001D6  5124               	movf	36,w,b	;volatile
  5331  0001D8  0B0F               	andlw	15
  5332  0001DA  6E4B               	movwf	??_USBStdFeatureReqHandler& (0+255),c
  5333  0001DC  504B               	movf	??_USBStdFeatureReqHandler,w,c
  5334  0001DE  0D01               	mullw	1
  5335  0001E0  0E76               	movlw	low _ep_data_out
  5336  0001E2  24F3               	addwf	prodl,w,c
  5337  0001E4  6ED9               	movwf	fsr2l,c
  5338  0001E6  0E00               	movlw	high _ep_data_out
  5339  0001E8  D00A               	goto	L7
  5340  0001EA                     l475:
  5341                           
  5342                           ;usb_device.c: 2874: else
  5343                           ;usb_device.c: 2875: {
  5344                           ;usb_device.c: 2876: ep_data_in[SetupPkt.EPNum].bits.transfer_terminated = 1;
  5345                           
  5346                           ; BSR set to: 0
  5347  0001EA  0104               	movlb	4	; () banked
  5348  0001EC  5124               	movf	36,w,b	;volatile
  5349  0001EE  0B0F               	andlw	15
  5350  0001F0  6E4B               	movwf	??_USBStdFeatureReqHandler& (0+255),c
  5351  0001F2  504B               	movf	??_USBStdFeatureReqHandler,w,c
  5352  0001F4  0D01               	mullw	1
  5353  0001F6  0E78               	movlw	low _ep_data_in
  5354  0001F8  24F3               	addwf	prodl,w,c
  5355  0001FA  6ED9               	movwf	fsr2l,c
  5356  0001FC  0E00               	movlw	high _ep_data_in
  5357  0001FE                     L7:
  5358  0001FE  20F4               	addwfc	prodh,w,c
  5359  000200  6EDA               	movwf	fsr2h,c
  5360  000202  0100               	movlb	0	; () banked
  5361  000204  82DF               	bsf	indf2,1,c
  5362  000206                     l476:
  5363                           
  5364                           ; BSR set to: 0
  5365                           ;usb_device.c: 2877: }
  5366                           ;usb_device.c: 2878: }
  5367                           ;usb_device.c: 2881: p->STAT.Val |= 0x04;
  5368                           
  5369                           ; BSR set to: 0
  5370                           
  5371                           ; BSR set to: 0
  5372  000206  C0D4  FFD9         	movff	USBStdFeatureReqHandler@p,fsr2l
  5373  00020A  C0D5  FFDA         	movff	USBStdFeatureReqHandler@p+1,fsr2h
  5374  00020E  0E00               	movlw	0
  5375  000210  84DB               	bsf	plusw2,2,c
  5376                           
  5377                           ; BSR set to: 0
  5378                           ;usb_device.c: 2882: p->STAT.Val |= 0x80;
  5379  000212  C0D4  FFD9         	movff	USBStdFeatureReqHandler@p,fsr2l
  5380  000216  C0D5  FFDA         	movff	USBStdFeatureReqHandler@p+1,fsr2h
  5381  00021A  0E00               	movlw	0
  5382  00021C  8EDB               	bsf	plusw2,7,c
  5383                           
  5384                           ;usb_device.c: 2883: }
  5385  00021E  0012               	return	
  5386  000220                     l473:
  5387                           
  5388                           ;usb_device.c: 2884: else
  5389                           ;usb_device.c: 2885: {
  5390                           ;usb_device.c: 2889: p = (BDT_ENTRY*)(((uintptr_t)p) ^ 0x0004);
  5391                           
  5392                           ; BSR set to: 0
  5393  000220  0E04               	movlw	4
  5394  000222  0100               	movlb	0	; () banked
  5395  000224  19D4               	xorwf	USBStdFeatureReqHandler@p& (0+255),w,b
  5396  000226  6FD4               	movwf	USBStdFeatureReqHandler@p& (0+255),b
  5397  000228  51D5               	movf	(USBStdFeatureReqHandler@p+1)& (0+255),w,b
  5398  00022A  6FD5               	movwf	(USBStdFeatureReqHandler@p+1)& (0+255),b
  5399                           
  5400                           ; BSR set to: 0
  5401                           ;usb_device.c: 2891: if(p->STAT.UOWN == 1)
  5402  00022C  C0D4  FFD9         	movff	USBStdFeatureReqHandler@p,fsr2l
  5403  000230  C0D5  FFDA         	movff	USBStdFeatureReqHandler@p+1,fsr2h
  5404  000234  AEDF               	btfss	indf2,7,c
  5405  000236  D01B               	goto	l478
  5406                           
  5407                           ; BSR set to: 0
  5408                           ;usb_device.c: 2892: {
  5409                           ;usb_device.c: 2895: p->STAT.Val &= (~0x80);
  5410  000238  C0D4  FFD9         	movff	USBStdFeatureReqHandler@p,fsr2l
  5411  00023C  C0D5  FFDA         	movff	USBStdFeatureReqHandler@p+1,fsr2h
  5412  000240  0E7F               	movlw	127
  5413  000242  16DF               	andwf	indf2,f,c
  5414                           
  5415                           ; BSR set to: 0
  5416                           ;usb_device.c: 2896: p->STAT.Val |= 0x40;
  5417  000244  C0D4  FFD9         	movff	USBStdFeatureReqHandler@p,fsr2l
  5418  000248  C0D5  FFDA         	movff	USBStdFeatureReqHandler@p+1,fsr2h
  5419  00024C  0E00               	movlw	0
  5420  00024E  8CDB               	bsf	plusw2,6,c
  5421                           
  5422                           ; BSR set to: 0
  5423                           ;usb_device.c: 2897: USER_USB_CALLBACK_EVENT_HANDLER(EVENT_TRANSFER_TERMINATED,p,sizeof(
      +                          p));
  5424  000250  0E00               	movlw	0
  5425  000252  6FCA               	movwf	(USER_USB_CALLBACK_EVENT_HANDLER@event+1)& (0+255),b
  5426  000254  0E05               	movlw	5
  5427  000256  6FC9               	movwf	USER_USB_CALLBACK_EVENT_HANDLER@event& (0+255),b
  5428  000258  C0D4  F0CB         	movff	USBStdFeatureReqHandler@p,USER_USB_CALLBACK_EVENT_HANDLER@pdata
  5429  00025C  C0D5  F0CC         	movff	USBStdFeatureReqHandler@p+1,USER_USB_CALLBACK_EVENT_HANDLER@pdata+1
  5430  000260  0E00               	movlw	0
  5431  000262  6FCE               	movwf	(USER_USB_CALLBACK_EVENT_HANDLER@size+1)& (0+255),b
  5432  000264  0E02               	movlw	2
  5433  000266  6FCD               	movwf	USER_USB_CALLBACK_EVENT_HANDLER@size& (0+255),b
  5434  000268  EC9C  F00B         	call	_USER_USB_CALLBACK_EVENT_HANDLER	;wreg free
  5435                           
  5436                           ;usb_device.c: 2898: }
  5437  00026C  D006               	goto	l479
  5438  00026E                     l478:
  5439                           
  5440                           ;usb_device.c: 2899: else
  5441                           ;usb_device.c: 2900: {
  5442                           ;usb_device.c: 2902: p->STAT.Val |= 0x40;
  5443  00026E  C0D4  FFD9         	movff	USBStdFeatureReqHandler@p,fsr2l
  5444  000272  C0D5  FFDA         	movff	USBStdFeatureReqHandler@p+1,fsr2h
  5445  000276  0E00               	movlw	0
  5446  000278  8CDB               	bsf	plusw2,6,c
  5447  00027A                     l479:
  5448                           
  5449                           ;usb_device.c: 2903: }
  5450                           ;usb_device.c: 2907: p = (BDT_ENTRY*)(((uintptr_t)p) ^ 0x0004);
  5451  00027A  0E04               	movlw	4
  5452  00027C  0100               	movlb	0	; () banked
  5453  00027E  19D4               	xorwf	USBStdFeatureReqHandler@p& (0+255),w,b
  5454  000280  6FD4               	movwf	USBStdFeatureReqHandler@p& (0+255),b
  5455  000282  51D5               	movf	(USBStdFeatureReqHandler@p+1)& (0+255),w,b
  5456  000284  6FD5               	movwf	(USBStdFeatureReqHandler@p+1)& (0+255),b
  5457                           
  5458                           ; BSR set to: 0
  5459                           ;usb_device.c: 2913: if((current_ep_data.bits.transfer_terminated != 0) || (p->STAT.UOWN
      +                           == 1))
  5460  000286  B3D3               	btfsc	USBStdFeatureReqHandler@current_ep_data& (0+255),1,b
  5461  000288  D006               	goto	u4580
  5462                           
  5463                           ; BSR set to: 0
  5464  00028A  C0D4  FFD9         	movff	USBStdFeatureReqHandler@p,fsr2l
  5465  00028E  C0D5  FFDA         	movff	USBStdFeatureReqHandler@p+1,fsr2h
  5466  000292  AEDF               	btfss	indf2,7,c
  5467  000294  D030               	goto	l480
  5468  000296                     u4580:
  5469                           
  5470                           ; BSR set to: 0
  5471                           ;usb_device.c: 2914: {
  5472                           ;usb_device.c: 2915: if(SetupPkt.EPDir == 0)
  5473  000296  0104               	movlb	4	; () banked
  5474  000298  BF24               	btfsc	36,7,b	;volatile
  5475  00029A  D00A               	goto	l483
  5476                           
  5477                           ; BSR set to: 4
  5478                           ;usb_device.c: 2916: {
  5479                           ;usb_device.c: 2917: ep_data_out[SetupPkt.EPNum].bits.transfer_terminated = 0;
  5480  00029C  5124               	movf	36,w,b	;volatile
  5481  00029E  0B0F               	andlw	15
  5482  0002A0  6E4B               	movwf	??_USBStdFeatureReqHandler& (0+255),c
  5483  0002A2  504B               	movf	??_USBStdFeatureReqHandler,w,c
  5484  0002A4  0D01               	mullw	1
  5485  0002A6  0E76               	movlw	low _ep_data_out
  5486  0002A8  24F3               	addwf	prodl,w,c
  5487  0002AA  6ED9               	movwf	fsr2l,c
  5488  0002AC  0E00               	movlw	high _ep_data_out
  5489  0002AE  D00A               	goto	L8
  5490  0002B0                     l483:
  5491                           
  5492                           ;usb_device.c: 2919: else
  5493                           ;usb_device.c: 2920: {
  5494                           ;usb_device.c: 2921: ep_data_in[SetupPkt.EPNum].bits.transfer_terminated = 0;
  5495                           
  5496                           ; BSR set to: 0
  5497  0002B0  0104               	movlb	4	; () banked
  5498  0002B2  5124               	movf	36,w,b	;volatile
  5499  0002B4  0B0F               	andlw	15
  5500  0002B6  6E4B               	movwf	??_USBStdFeatureReqHandler& (0+255),c
  5501  0002B8  504B               	movf	??_USBStdFeatureReqHandler,w,c
  5502  0002BA  0D01               	mullw	1
  5503  0002BC  0E78               	movlw	low _ep_data_in
  5504  0002BE  24F3               	addwf	prodl,w,c
  5505  0002C0  6ED9               	movwf	fsr2l,c
  5506  0002C2  0E00               	movlw	high _ep_data_in
  5507  0002C4                     L8:
  5508  0002C4  20F4               	addwfc	prodh,w,c
  5509  0002C6  6EDA               	movwf	fsr2h,c
  5510  0002C8  0100               	movlb	0	; () banked
  5511  0002CA  92DF               	bcf	indf2,1,c
  5512                           
  5513                           ; BSR set to: 0
  5514                           ;usb_device.c: 2922: }
  5515                           ;usb_device.c: 2924: p->STAT.Val &= ~(0x80 | 0x40 | 0x04);
  5516                           
  5517                           ; BSR set to: 0
  5518  0002CC  C0D4  FFD9         	movff	USBStdFeatureReqHandler@p,fsr2l
  5519  0002D0  C0D5  FFDA         	movff	USBStdFeatureReqHandler@p+1,fsr2h
  5520  0002D4  0E3B               	movlw	59
  5521  0002D6  16DF               	andwf	indf2,f,c
  5522                           
  5523                           ; BSR set to: 0
  5524                           ;usb_device.c: 2927: USER_USB_CALLBACK_EVENT_HANDLER(EVENT_TRANSFER_TERMINATED,p,sizeof(
      +                          p));
  5525  0002D8  0E00               	movlw	0
  5526  0002DA  6FCA               	movwf	(USER_USB_CALLBACK_EVENT_HANDLER@event+1)& (0+255),b
  5527  0002DC  0E05               	movlw	5
  5528  0002DE  6FC9               	movwf	USER_USB_CALLBACK_EVENT_HANDLER@event& (0+255),b
  5529  0002E0  C0D4  F0CB         	movff	USBStdFeatureReqHandler@p,USER_USB_CALLBACK_EVENT_HANDLER@pdata
  5530  0002E4  C0D5  F0CC         	movff	USBStdFeatureReqHandler@p+1,USER_USB_CALLBACK_EVENT_HANDLER@pdata+1
  5531  0002E8  0E00               	movlw	0
  5532  0002EA  6FCE               	movwf	(USER_USB_CALLBACK_EVENT_HANDLER@size+1)& (0+255),b
  5533  0002EC  0E02               	movlw	2
  5534  0002EE  6FCD               	movwf	USER_USB_CALLBACK_EVENT_HANDLER@size& (0+255),b
  5535  0002F0  EC9C  F00B         	call	_USER_USB_CALLBACK_EVENT_HANDLER	;wreg free
  5536                           
  5537                           ;usb_device.c: 2928: }
  5538  0002F4  D006               	goto	l485
  5539  0002F6                     l480:
  5540                           
  5541                           ;usb_device.c: 2929: else
  5542                           ;usb_device.c: 2930: {
  5543                           ;usb_device.c: 2932: p->STAT.Val &= ~(0x80 | 0x40 | 0x04);
  5544  0002F6  C0D4  FFD9         	movff	USBStdFeatureReqHandler@p,fsr2l
  5545  0002FA  C0D5  FFDA         	movff	USBStdFeatureReqHandler@p+1,fsr2h
  5546  0002FE  0E3B               	movlw	59
  5547  000300  16DF               	andwf	indf2,f,c
  5548  000302                     l485:
  5549                           
  5550                           ;usb_device.c: 2933: }
  5551                           ;usb_device.c: 2980: pUEP = (unsigned char*)(&UEP0+SetupPkt.EPNum);
  5552  000302  0104               	movlb	4	; () banked
  5553  000304  5124               	movf	36,w,b	;volatile
  5554  000306  0B0F               	andlw	15
  5555  000308  6E4B               	movwf	??_USBStdFeatureReqHandler& (0+255),c
  5556  00030A  504B               	movf	??_USBStdFeatureReqHandler,w,c
  5557  00030C  0D01               	mullw	1
  5558  00030E  0E6A               	movlw	106
  5559  000310  24F3               	addwf	prodl,w,c
  5560  000312  0100               	movlb	0	; () banked
  5561  000314  6FD1               	movwf	USBStdFeatureReqHandler@pUEP& (0+255),b
  5562  000316  0E0F               	movlw	15
  5563  000318  20F4               	addwfc	prodh,w,c
  5564  00031A  6FD2               	movwf	(USBStdFeatureReqHandler@pUEP+1)& (0+255),b
  5565                           
  5566                           ; BSR set to: 0
  5567                           ;usb_device.c: 2984: *pUEP &= ~0x0001;
  5568  00031C  C0D1  FFD9         	movff	USBStdFeatureReqHandler@pUEP,fsr2l
  5569  000320  C0D2  FFDA         	movff	USBStdFeatureReqHandler@pUEP+1,fsr2h
  5570  000324  0EFE               	movlw	254
  5571  000326  16DF               	andwf	indf2,f,c
  5572                           
  5573                           ; BSR set to: 0
  5574  000328  0012               	return	
  5575  00032A                     __end_of_USBStdFeatureReqHandler:
  5576                           	opt stack 0
  5577                           tblptru	equ	0xFF8
  5578                           tblptrh	equ	0xFF7
  5579                           tblptrl	equ	0xFF6
  5580                           tablat	equ	0xFF5
  5581                           prodh	equ	0xFF4
  5582                           prodl	equ	0xFF3
  5583                           indf0	equ	0xFEF
  5584                           postinc0	equ	0xFEE
  5585                           fsr0h	equ	0xFEA
  5586                           fsr0l	equ	0xFE9
  5587                           wreg	equ	0xFE8
  5588                           indf2	equ	0xFDF
  5589                           postinc2	equ	0xFDE
  5590                           postdec2	equ	0xFDD
  5591                           plusw2	equ	0xFDB
  5592                           fsr2h	equ	0xFDA
  5593                           fsr2l	equ	0xFD9
  5594                           status	equ	0xFD8
  5595                           
  5596 ;; *************** function _USER_USB_CALLBACK_EVENT_HANDLER *****************
  5597 ;; Defined at:
  5598 ;;		line 50 in file "../demo_src/usb_events.c"
  5599 ;; Parameters:    Size  Location     Type
  5600 ;;  event           2    3[BANK0 ] enum E5994
  5601 ;;  pdata           2    5[BANK0 ] PTR void 
  5602 ;;		 -> RAM(2047), USTATcopy(1), USBActiveConfiguration(1), NULL(0), 
  5603 ;;		 -> BDT(32), 
  5604 ;;  size            2    7[BANK0 ] unsigned int 
  5605 ;; Auto vars:     Size  Location     Type
  5606 ;;		None
  5607 ;; Return value:  Size  Location     Type
  5608 ;;                  1    wreg      unsigned char 
  5609 ;; Registers used:
  5610 ;;		wreg, fsr2l, fsr2h, status,2, status,0, prodl, prodh, cstack
  5611 ;; Tracked objects:
  5612 ;;		On entry : 0/0
  5613 ;;		On exit  : 0/0
  5614 ;;		Unchanged: 0/0
  5615 ;; Data sizes:     COMRAM   BANK0   BANK1   BANK2   BANK3   BANK4   BANK5   BANK6   BANK7
  5616 ;;      Params:         0       6       0       0       0       0       0       0       0
  5617 ;;      Locals:         0       0       0       0       0       0       0       0       0
  5618 ;;      Temps:          0       2       0       0       0       0       0       0       0
  5619 ;;      Totals:         0       8       0       0       0       0       0       0       0
  5620 ;;Total ram usage:        8 bytes
  5621 ;; Hardware stack levels used:    1
  5622 ;; Hardware stack levels required when called:    4
  5623 ;; This function calls:
  5624 ;;		_APP_DeviceJoystickInitialize
  5625 ;;		_APP_LEDUpdateUSBStatus
  5626 ;;		_SYSTEM_Initialize
  5627 ;;		_USBCheckHIDRequest
  5628 ;; This function is called by:
  5629 ;;		_USBDeviceTasks
  5630 ;;		_USBStdSetCfgHandler
  5631 ;;		_USBSuspend
  5632 ;;		_USBWakeFromSuspend
  5633 ;;		_USBCtrlTrfSetupHandler
  5634 ;;		_USBCheckStdRequest
  5635 ;;		_USBStdFeatureReqHandler
  5636 ;; This function uses a non-reentrant model
  5637 ;;
  5638                           
  5639                           	psect	text18
  5640  001738                     __ptext18:
  5641                           	opt stack 0
  5642  001738                     _USER_USB_CALLBACK_EVENT_HANDLER:
  5643                           	opt stack 25
  5644                           
  5645                           ;usb_events.c: 52: switch( (int) event )
  5646                           
  5647                           ;incstack = 0
  5648  001738  D015               	goto	l592
  5649  00173A                     
  5650                           ;usb_events.c: 60: APP_LEDUpdateUSBStatus();
  5651  00173A  ECDC  F00B         	call	_APP_LEDUpdateUSBStatus	;wreg free
  5652                           
  5653                           ;usb_events.c: 61: break;
  5654  00173E  0012               	return	
  5655  001740                     
  5656                           ;usb_events.c: 65: APP_LEDUpdateUSBStatus();
  5657  001740  ECDC  F00B         	call	_APP_LEDUpdateUSBStatus	;wreg free
  5658                           
  5659                           ;usb_events.c: 73: SYSTEM_Initialize(SYSTEM_STATE_USB_SUSPEND);
  5660  001744  0E01               	movlw	1
  5661  001746  EC7F  F00D         	call	_SYSTEM_Initialize
  5662                           
  5663                           ;usb_events.c: 74: break;
  5664  00174A  0012               	return	
  5665  00174C                     
  5666                           ;usb_events.c: 78: APP_LEDUpdateUSBStatus();
  5667  00174C  ECDC  F00B         	call	_APP_LEDUpdateUSBStatus	;wreg free
  5668                           
  5669                           ;usb_events.c: 84: SYSTEM_Initialize(SYSTEM_STATE_USB_RESUME);
  5670  001750  0E02               	movlw	2
  5671  001752  EC7F  F00D         	call	_SYSTEM_Initialize
  5672                           
  5673                           ;usb_events.c: 85: break;
  5674  001756  0012               	return	
  5675  001758                     
  5676                           ;usb_events.c: 90: APP_DeviceJoystickInitialize();
  5677  001758  EC3B  F00E         	call	_APP_DeviceJoystickInitialize	;wreg free
  5678                           
  5679                           ;usb_events.c: 94: break;
  5680                           
  5681                           ;usb_events.c: 93: case EVENT_SET_DESCRIPTOR:
  5682                           
  5683                           ;usb_events.c: 91: break;
  5684  00175C  0012               	return	
  5685  00175E                     
  5686                           ;usb_events.c: 99: USBCheckHIDRequest();
  5687  00175E  EC95  F008         	call	_USBCheckHIDRequest	;wreg free
  5688                           
  5689                           ;usb_events.c: 110: }
  5690                           
  5691                           ;usb_events.c: 109: break;
  5692                           
  5693                           ;usb_events.c: 108: default:
  5694                           
  5695                           ;usb_events.c: 106: break;
  5696                           
  5697                           ;usb_events.c: 105: case EVENT_TRANSFER_TERMINATED:
  5698                           
  5699                           ;usb_events.c: 103: break;
  5700                           
  5701                           ;usb_events.c: 102: case EVENT_BUS_ERROR:
  5702                           
  5703                           ;usb_events.c: 100: break;
  5704  001762  0012               	return	
  5705  001764                     l592:
  5706  001764  C0C9  F0CF         	movff	USER_USB_CALLBACK_EVENT_HANDLER@event,??_USER_USB_CALLBACK_EVENT_HANDLER
  5707  001768  C0CA  F0D0         	movff	USER_USB_CALLBACK_EVENT_HANDLER@event+1,??_USER_USB_CALLBACK_EVENT_HANDLER+1
  5708                           
  5709                           ; Switch on 2 bytes has been partitioned into a top level switch of size 1, and 2 sub-sw
      +                          itches
  5710                           ; Switch size 1, requested type "space"
  5711                           ; Number of cases is 2, Range of values is 0 to 127
  5712                           ; switch strategies available:
  5713                           ; Name         Instructions Cycles
  5714                           ; simple_byte            7     4 (average)
  5715                           ;	Chosen strategy is simple_byte
  5716  00176C  0100               	movlb	0	; () banked
  5717  00176E  51D0               	movf	(??_USER_USB_CALLBACK_EVENT_HANDLER+1)& (0+255),w,b
  5718  001770  0A00               	xorlw	0	; case 0
  5719  001772  B4D8               	btfsc	status,2,c
  5720  001774  D004               	goto	l5583
  5721  001776  0A7F               	xorlw	127	; case 127
  5722  001778  A4D8               	btfss	status,2,c
  5723  00177A  0012               	return	
  5724  00177C  D01A               	goto	l5585
  5725  00177E                     l5583:
  5726                           
  5727                           ; BSR set to: 0
  5728                           ; Switch size 1, requested type "space"
  5729                           ; Number of cases is 8, Range of values is 1 to 117
  5730                           ; switch strategies available:
  5731                           ; Name         Instructions Cycles
  5732                           ; simple_byte           25    13 (average)
  5733                           ;	Chosen strategy is simple_byte
  5734  00177E  51CF               	movf	??_USER_USB_CALLBACK_EVENT_HANDLER& (0+255),w,b
  5735  001780  0A01               	xorlw	1	; case 1
  5736  001782  B4D8               	btfsc	status,2,c
  5737  001784  D7E9               	goto	l598
  5738  001786  0A03               	xorlw	3	; case 2
  5739  001788  B4D8               	btfsc	status,2,c
  5740  00178A  0012               	return	
  5741  00178C  0A01               	xorlw	1	; case 3
  5742  00178E  B4D8               	btfsc	status,2,c
  5743  001790  D7E6               	goto	l600
  5744  001792  0A06               	xorlw	6	; case 5
  5745  001794  B4D8               	btfsc	status,2,c
  5746  001796  0012               	return	
  5747  001798  0A77               	xorlw	119	; case 114
  5748  00179A  B4D8               	btfsc	status,2,c
  5749  00179C  0012               	return	
  5750  00179E  0A01               	xorlw	1	; case 115
  5751  0017A0  B4D8               	btfsc	status,2,c
  5752  0017A2  D7CB               	goto	l595
  5753  0017A4  0A07               	xorlw	7	; case 116
  5754  0017A6  B4D8               	btfsc	status,2,c
  5755  0017A8  D7D1               	goto	l597
  5756  0017AA  0A01               	xorlw	1	; case 117
  5757  0017AC  A4D8               	btfss	status,2,c
  5758  0017AE  0012               	return	
  5759  0017B0  D7C7               	goto	l596
  5760  0017B2                     l5585:
  5761                           
  5762                           ; BSR set to: 0
  5763                           ; Switch size 1, requested type "space"
  5764                           ; Number of cases is 1, Range of values is 255 to 255
  5765                           ; switch strategies available:
  5766                           ; Name         Instructions Cycles
  5767                           ; simple_byte            4     3 (average)
  5768                           ;	Chosen strategy is simple_byte
  5769  0017B2  51CF               	movf	??_USER_USB_CALLBACK_EVENT_HANDLER& (0+255),w,b
  5770  0017B4  0AFF               	xorlw	255	; case 255
  5771  0017B6  0012               	return	
  5772  0017B8                     __end_of_USER_USB_CALLBACK_EVENT_HANDLER:
  5773                           	opt stack 0
  5774                           tblptru	equ	0xFF8
  5775                           tblptrh	equ	0xFF7
  5776                           tblptrl	equ	0xFF6
  5777                           tablat	equ	0xFF5
  5778                           prodh	equ	0xFF4
  5779                           prodl	equ	0xFF3
  5780                           indf0	equ	0xFEF
  5781                           postinc0	equ	0xFEE
  5782                           fsr0h	equ	0xFEA
  5783                           fsr0l	equ	0xFE9
  5784                           wreg	equ	0xFE8
  5785                           indf2	equ	0xFDF
  5786                           postinc2	equ	0xFDE
  5787                           postdec2	equ	0xFDD
  5788                           plusw2	equ	0xFDB
  5789                           fsr2h	equ	0xFDA
  5790                           fsr2l	equ	0xFD9
  5791                           status	equ	0xFD8
  5792                           
  5793 ;; *************** function _USBCheckHIDRequest *****************
  5794 ;; Defined at:
  5795 ;;		line 156 in file "../../../../../../framework/usb/src/usb_device_hid.c"
  5796 ;; Parameters:    Size  Location     Type
  5797 ;;		None
  5798 ;; Auto vars:     Size  Location     Type
  5799 ;;		None
  5800 ;; Return value:  Size  Location     Type
  5801 ;;                  1    wreg      void 
  5802 ;; Registers used:
  5803 ;;		wreg, status,2, status,0
  5804 ;; Tracked objects:
  5805 ;;		On entry : 0/0
  5806 ;;		On exit  : 0/0
  5807 ;;		Unchanged: 0/0
  5808 ;; Data sizes:     COMRAM   BANK0   BANK1   BANK2   BANK3   BANK4   BANK5   BANK6   BANK7
  5809 ;;      Params:         0       0       0       0       0       0       0       0       0
  5810 ;;      Locals:         0       0       0       0       0       0       0       0       0
  5811 ;;      Temps:          0       0       0       0       0       0       0       0       0
  5812 ;;      Totals:         0       0       0       0       0       0       0       0       0
  5813 ;;Total ram usage:        0 bytes
  5814 ;; Hardware stack levels used:    1
  5815 ;; Hardware stack levels required when called:    1
  5816 ;; This function calls:
  5817 ;;		Nothing
  5818 ;; This function is called by:
  5819 ;;		_USER_USB_CALLBACK_EVENT_HANDLER
  5820 ;; This function uses a non-reentrant model
  5821 ;;
  5822                           
  5823                           	psect	text19
  5824  00112A                     __ptext19:
  5825                           	opt stack 0
  5826  00112A                     _USBCheckHIDRequest:
  5827                           	opt stack 27
  5828                           
  5829                           ;usb_device_hid.c: 158: if(SetupPkt.Recipient != (0x01)) return;
  5830                           
  5831                           ;incstack = 0
  5832  00112A  0104               	movlb	4	; () banked
  5833  00112C  5120               	movf	32,w,b	;volatile
  5834  00112E  0B1F               	andlw	31
  5835  001130  06E8               	decf	wreg,f,c
  5836  001132  A4D8               	btfss	status,2,c
  5837  001134  0012               	return	
  5838                           
  5839                           ; BSR set to: 4
  5840                           ;usb_device_hid.c: 159: if(SetupPkt.bIntfID != 0x00) return;
  5841                           
  5842                           ; BSR set to: 4
  5843                           
  5844                           ; BSR set to: 4
  5845  001136  5124               	movf	36,w,b	;volatile
  5846  001138  A4D8               	btfss	status,2,c
  5847  00113A  0012               	return	
  5848                           
  5849                           ; BSR set to: 4
  5850                           ;usb_device_hid.c: 166: if(SetupPkt.bRequest == 6)
  5851                           
  5852                           ; BSR set to: 4
  5853                           
  5854                           ; BSR set to: 4
  5855  00113C  0E06               	movlw	6
  5856  00113E  1921               	xorwf	33,w,b	;volatile
  5857  001140  B4D8               	btfsc	status,2,c
  5858  001142  D01B               	goto	l541
  5859  001144  D022               	goto	l544
  5860  001146                     
  5861                           ; BSR set to: 4
  5862                           ;usb_device_hid.c: 171: if(USBActiveConfiguration == 1)
  5863                           
  5864                           ; BSR set to: 4
  5865  001146  042F               	decf	_USBActiveConfiguration,w,c
  5866  001148  A4D8               	btfss	status,2,c
  5867  00114A  D01F               	goto	l544
  5868                           
  5869                           ; BSR set to: 4
  5870                           ;usb_device_hid.c: 172: {
  5871                           ;usb_device_hid.c: 173: { inPipes[0].pSrc.bRom = (const uint8_t*)&configDescriptor1 + 18
      +                          ; inPipes[0].wCount.Val = sizeof(USB_HID_DSC)+3; inPipes[0].info.Val = 0x40 | 0x80 | 0x0
      +                          0; };
  5872  00114C  0EB5               	movlw	low (_configDescriptor1+18)
  5873  00114E  6E09               	movwf	_inPipes,c
  5874  001150  0E7F               	movlw	high (_configDescriptor1+18)
  5875  001152  6E0A               	movwf	_inPipes+1,c
  5876                           
  5877                           ; BSR set to: 4
  5878  001154  0E00               	movlw	0
  5879  001156  6E0E               	movwf	_inPipes+5,c
  5880  001158  0E09               	movlw	9
  5881  00115A  D00D               	goto	L9
  5882  00115C                     l4419:
  5883                           
  5884                           ; BSR set to: 4
  5885  00115C  0EC0               	movlw	192
  5886  00115E  6E0C               	movwf	_inPipes+3,c
  5887                           
  5888                           ; BSR set to: 4
  5889                           ;usb_device_hid.c: 177: }
  5890                           ;usb_device_hid.c: 178: break;
  5891  001160  D014               	goto	l544
  5892  001162                     
  5893                           ; BSR set to: 4
  5894                           ;usb_device_hid.c: 180: if(USBActiveConfiguration == 1)
  5895                           
  5896                           ; BSR set to: 4
  5897  001162  042F               	decf	_USBActiveConfiguration,w,c
  5898  001164  A4D8               	btfss	status,2,c
  5899  001166  D011               	goto	l544
  5900                           
  5901                           ; BSR set to: 4
  5902                           ;usb_device_hid.c: 181: {
  5903                           ;usb_device_hid.c: 182: { inPipes[0].pSrc.bRom = (const uint8_t*)&hid_rpt01; inPipes[0].
      +                          wCount.Val = 1286; inPipes[0].info.Val = 0x40 | 0x80 | 0x00; };
  5904  001168  0E69               	movlw	low _hid_rpt01
  5905  00116A  6E09               	movwf	_inPipes,c
  5906  00116C  0E7A               	movlw	high _hid_rpt01
  5907  00116E  6E0A               	movwf	_inPipes+1,c
  5908                           
  5909                           ; BSR set to: 4
  5910  001170  0E05               	movlw	5
  5911  001172  6E0E               	movwf	_inPipes+5,c
  5912  001174  0E06               	movlw	6
  5913  001176                     L9:
  5914  001176  6E0D               	movwf	_inPipes+4,c
  5915  001178  D7F1               	goto	l4419
  5916  00117A                     l541:
  5917                           
  5918                           ; BSR set to: 4
  5919                           
  5920                           ; BSR set to: 4
  5921  00117A  5123               	movf	35,w,b	;volatile
  5922                           
  5923                           ; Switch size 1, requested type "space"
  5924                           ; Number of cases is 3, Range of values is 33 to 35
  5925                           ; switch strategies available:
  5926                           ; Name         Instructions Cycles
  5927                           ; simple_byte           10     6 (average)
  5928                           ;	Chosen strategy is simple_byte
  5929  00117C  0A21               	xorlw	33	; case 33
  5930  00117E  B4D8               	btfsc	status,2,c
  5931  001180  D7E2               	goto	l542
  5932  001182  0A03               	xorlw	3	; case 34
  5933  001184  B4D8               	btfsc	status,2,c
  5934  001186  D7ED               	goto	l545
  5935  001188  0A01               	xorlw	1	; case 35
  5936  00118A                     l544:
  5937                           
  5938                           ; BSR set to: 4
  5939                           ;usb_device_hid.c: 202: }
  5940                           ;usb_device_hid.c: 204: if(SetupPkt.RequestType != (0x20>>5))
  5941                           
  5942                           ; BSR set to: 4
  5943                           
  5944                           ; BSR set to: 4
  5945  00118A  3920               	swapf	32,w,b	;volatile
  5946  00118C  32E8               	rrcf	wreg,f,c
  5947  00118E  0B03               	andlw	3
  5948  001190  06E8               	decf	wreg,f,c
  5949  001192  A4D8               	btfss	status,2,c
  5950  001194  0012               	return	
  5951  001196  D020               	goto	l549
  5952  001198                     
  5953                           ; BSR set to: 4
  5954                           ;usb_device_hid.c: 222: { inPipes[0].pSrc.bRam = (uint8_t*)&idle_rate; inPipes[0].wCount
      +                          .Val = 1; inPipes[0].info.Val = 0x40 | 0x80 | 0x01; };
  5955                           
  5956                           ; BSR set to: 4
  5957  001198  0EC5               	movlw	low _idle_rate
  5958  00119A  6E09               	movwf	_inPipes,c
  5959  00119C  0E00               	movlw	high _idle_rate
  5960  00119E  6E0A               	movwf	_inPipes+1,c
  5961                           
  5962                           ; BSR set to: 4
  5963  0011A0  0E00               	movlw	0
  5964  0011A2  6E0E               	movwf	_inPipes+5,c
  5965  0011A4  0E01               	movlw	1
  5966  0011A6  6E0D               	movwf	_inPipes+4,c
  5967                           
  5968                           ; BSR set to: 4
  5969  0011A8  0EC1               	movlw	193
  5970  0011AA  6E0C               	movwf	_inPipes+3,c
  5971                           
  5972                           ;usb_device_hid.c: 226: break;
  5973  0011AC  0012               	return	
  5974  0011AE                     
  5975                           ; BSR set to: 4
  5976                           ;usb_device_hid.c: 228: inPipes[0].info.Val = 0x00 | 0x80;
  5977                           
  5978                           ; BSR set to: 4
  5979  0011AE  0E80               	movlw	128
  5980  0011B0  6E0C               	movwf	_inPipes+3,c
  5981                           
  5982                           ; BSR set to: 4
  5983                           ;usb_device_hid.c: 229: idle_rate = SetupPkt.W_Value.byte.HB;
  5984  0011B2  C423 F0C5          	movff	1059,_idle_rate	;volatile
  5985                           
  5986                           ;usb_device_hid.c: 230: ;
  5987                           ;usb_device_hid.c: 231: break;
  5988  0011B6  0012               	return	
  5989  0011B8                     
  5990                           ; BSR set to: 4
  5991                           ;usb_device_hid.c: 233: { inPipes[0].pSrc.bRam = (uint8_t*)&active_protocol; inPipes[0].
      +                          wCount.Val = 1; inPipes[0].info.Val = 0x00 | 0x80 | 0x01; };
  5992                           
  5993                           ; BSR set to: 4
  5994  0011B8  0EC4               	movlw	low _active_protocol
  5995  0011BA  6E09               	movwf	_inPipes,c
  5996  0011BC  0E00               	movlw	high _active_protocol
  5997  0011BE  6E0A               	movwf	_inPipes+1,c
  5998                           
  5999                           ; BSR set to: 4
  6000  0011C0  0E00               	movlw	0
  6001  0011C2  6E0E               	movwf	_inPipes+5,c
  6002  0011C4  0E01               	movlw	1
  6003  0011C6  6E0D               	movwf	_inPipes+4,c
  6004                           
  6005                           ; BSR set to: 4
  6006  0011C8  0E81               	movlw	129
  6007  0011CA  6E0C               	movwf	_inPipes+3,c
  6008                           
  6009                           ;usb_device_hid.c: 237: break;
  6010  0011CC  0012               	return	
  6011  0011CE                     
  6012                           ; BSR set to: 4
  6013                           ;usb_device_hid.c: 239: inPipes[0].info.Val = 0x00 | 0x80;
  6014                           
  6015                           ; BSR set to: 4
  6016  0011CE  0E80               	movlw	128
  6017  0011D0  6E0C               	movwf	_inPipes+3,c
  6018                           
  6019                           ; BSR set to: 4
  6020                           ;usb_device_hid.c: 240: active_protocol = SetupPkt.W_Value.byte.LB;
  6021  0011D2  C422 F0C4          	movff	1058,_active_protocol	;volatile
  6022                           
  6023                           ; BSR set to: 4
  6024                           ;usb_device_hid.c: 242: }
  6025                           
  6026                           ;usb_device_hid.c: 241: break;
  6027  0011D6  0012               	return	
  6028  0011D8                     l549:
  6029                           
  6030                           ; BSR set to: 4
  6031                           
  6032                           ; BSR set to: 4
  6033  0011D8  5121               	movf	33,w,b	;volatile
  6034                           
  6035                           ; Switch size 1, requested type "space"
  6036                           ; Number of cases is 6, Range of values is 1 to 11
  6037                           ; switch strategies available:
  6038                           ; Name         Instructions Cycles
  6039                           ; simple_byte           19    10 (average)
  6040                           ;	Chosen strategy is simple_byte
  6041  0011DA  0A01               	xorlw	1	; case 1
  6042  0011DC  B4D8               	btfsc	status,2,c
  6043  0011DE  0012               	return	
  6044  0011E0  0A03               	xorlw	3	; case 2
  6045  0011E2  B4D8               	btfsc	status,2,c
  6046  0011E4  D7D9               	goto	l553
  6047  0011E6  0A01               	xorlw	1	; case 3
  6048  0011E8  B4D8               	btfsc	status,2,c
  6049  0011EA  D7E6               	goto	l555
  6050  0011EC  0A0A               	xorlw	10	; case 9
  6051  0011EE  B4D8               	btfsc	status,2,c
  6052  0011F0  0012               	return	
  6053  0011F2  0A03               	xorlw	3	; case 10
  6054  0011F4  B4D8               	btfsc	status,2,c
  6055  0011F6  D7DB               	goto	l554
  6056  0011F8  0A01               	xorlw	1	; case 11
  6057  0011FA  A4D8               	btfss	status,2,c
  6058  0011FC  0012               	return	
  6059  0011FE  D7E7               	goto	l556
  6060  001200                     __end_of_USBCheckHIDRequest:
  6061                           	opt stack 0
  6062                           tblptru	equ	0xFF8
  6063                           tblptrh	equ	0xFF7
  6064                           tblptrl	equ	0xFF6
  6065                           tablat	equ	0xFF5
  6066                           prodh	equ	0xFF4
  6067                           prodl	equ	0xFF3
  6068                           indf0	equ	0xFEF
  6069                           postinc0	equ	0xFEE
  6070                           fsr0h	equ	0xFEA
  6071                           fsr0l	equ	0xFE9
  6072                           wreg	equ	0xFE8
  6073                           indf2	equ	0xFDF
  6074                           postinc2	equ	0xFDE
  6075                           postdec2	equ	0xFDD
  6076                           plusw2	equ	0xFDB
  6077                           fsr2h	equ	0xFDA
  6078                           fsr2l	equ	0xFD9
  6079                           status	equ	0xFD8
  6080                           
  6081 ;; *************** function _SYSTEM_Initialize *****************
  6082 ;; Defined at:
  6083 ;;		line 79 in file "system.c"
  6084 ;; Parameters:    Size  Location     Type
  6085 ;;  state           1    wreg     enum E6411
  6086 ;; Auto vars:     Size  Location     Type
  6087 ;;  state           1   19[COMRAM] enum E6411
  6088 ;; Return value:  Size  Location     Type
  6089 ;;                  1    wreg      void 
  6090 ;; Registers used:
  6091 ;;		wreg, status,2, status,0, cstack
  6092 ;; Tracked objects:
  6093 ;;		On entry : 0/0
  6094 ;;		On exit  : 0/0
  6095 ;;		Unchanged: 0/0
  6096 ;; Data sizes:     COMRAM   BANK0   BANK1   BANK2   BANK3   BANK4   BANK5   BANK6   BANK7
  6097 ;;      Params:         0       0       0       0       0       0       0       0       0
  6098 ;;      Locals:         1       0       0       0       0       0       0       0       0
  6099 ;;      Temps:          0       0       0       0       0       0       0       0       0
  6100 ;;      Totals:         1       0       0       0       0       0       0       0       0
  6101 ;;Total ram usage:        1 bytes
  6102 ;; Hardware stack levels used:    1
  6103 ;; Hardware stack levels required when called:    2
  6104 ;; This function calls:
  6105 ;;		_BUTTON_Enable
  6106 ;;		_LED_Enable
  6107 ;;		_WHEEL_Enable
  6108 ;; This function is called by:
  6109 ;;		_USER_USB_CALLBACK_EVENT_HANDLER
  6110 ;;		_main
  6111 ;; This function uses a non-reentrant model
  6112 ;;
  6113                           
  6114                           	psect	text20
  6115  001AFE                     __ptext20:
  6116                           	opt stack 0
  6117  001AFE                     _SYSTEM_Initialize:
  6118                           	opt stack 26
  6119                           
  6120                           ; BSR set to: 4
  6121                           ;incstack = 0
  6122                           ;SYSTEM_Initialize@state stored from wreg
  6123  001AFE  6E43               	movwf	SYSTEM_Initialize@state,c
  6124                           
  6125                           ;system.c: 81: switch(state)
  6126  001B00  D014               	goto	l691
  6127  001B02                     
  6128                           ;system.c: 88: OSCTUNE = 0x80;
  6129  001B02  0E80               	movlw	128
  6130  001B04  6E9B               	movwf	3995,c	;volatile
  6131                           
  6132                           ;system.c: 89: OSCCON = 0x70;
  6133  001B06  0E70               	movlw	112
  6134  001B08  6ED3               	movwf	4051,c	;volatile
  6135                           
  6136                           ;system.c: 90: OSCCON2 = 0x10;
  6137  001B0A  0E10               	movlw	16
  6138  001B0C  6ED2               	movwf	4050,c	;volatile
  6139  001B0E  AED2               	btfss	4050,7,c	;volatile
  6140  001B10  D7FE               	goto	l694
  6141                           
  6142                           ;system.c: 92: ACTCON = 0x90;
  6143  001B12  0E90               	movlw	144
  6144  001B14  6EB5               	movwf	4021,c	;volatile
  6145                           
  6146                           ;system.c: 95: LED_Enable(LED_D1);
  6147  001B16  0E01               	movlw	1
  6148  001B18  ECF7  F00C         	call	_LED_Enable
  6149                           
  6150                           ;system.c: 97: BUTTON_Enable(BUTTON_S2);
  6151  001B1C  0E01               	movlw	1
  6152  001B1E  ECC7  F009         	call	_BUTTON_Enable
  6153                           
  6154                           ;system.c: 98: WHEEL_Enable(WHEEL_W1);
  6155  001B22  0E01               	movlw	1
  6156  001B24  ECAE  F00C         	call	_WHEEL_Enable
  6157                           
  6158                           ;system.c: 106: }
  6159                           
  6160                           ;system.c: 105: break;
  6161                           
  6162                           ;system.c: 104: case SYSTEM_STATE_USB_RESUME:
  6163                           
  6164                           ;system.c: 102: break;
  6165                           
  6166                           ;system.c: 101: case SYSTEM_STATE_USB_SUSPEND:
  6167                           
  6168                           ;system.c: 99: break;
  6169  001B28  0012               	return	
  6170  001B2A                     l691:
  6171  001B2A  5043               	movf	SYSTEM_Initialize@state,w,c
  6172                           
  6173                           ; Switch size 1, requested type "space"
  6174                           ; Number of cases is 3, Range of values is 0 to 2
  6175                           ; switch strategies available:
  6176                           ; Name         Instructions Cycles
  6177                           ; simple_byte           10     6 (average)
  6178                           ;	Chosen strategy is simple_byte
  6179  001B2C  0A00               	xorlw	0	; case 0
  6180  001B2E  B4D8               	btfsc	status,2,c
  6181  001B30  D7E8               	goto	l692
  6182  001B32  0A01               	xorlw	1	; case 1
  6183  001B34  B4D8               	btfsc	status,2,c
  6184  001B36  0012               	return	
  6185  001B38  0A03               	xorlw	3	; case 2
  6186  001B3A  0012               	return	
  6187  001B3C                     __end_of_SYSTEM_Initialize:
  6188                           	opt stack 0
  6189                           tblptru	equ	0xFF8
  6190                           tblptrh	equ	0xFF7
  6191                           tblptrl	equ	0xFF6
  6192                           tablat	equ	0xFF5
  6193                           prodh	equ	0xFF4
  6194                           prodl	equ	0xFF3
  6195                           indf0	equ	0xFEF
  6196                           postinc0	equ	0xFEE
  6197                           fsr0h	equ	0xFEA
  6198                           fsr0l	equ	0xFE9
  6199                           wreg	equ	0xFE8
  6200                           indf2	equ	0xFDF
  6201                           postinc2	equ	0xFDE
  6202                           postdec2	equ	0xFDD
  6203                           plusw2	equ	0xFDB
  6204                           fsr2h	equ	0xFDA
  6205                           fsr2l	equ	0xFD9
  6206                           status	equ	0xFD8
  6207                           
  6208 ;; *************** function _WHEEL_Enable *****************
  6209 ;; Defined at:
  6210 ;;		line 93 in file "C:/Users/kyle.marshall/MPLABXProjects/USB_FFB_Wheel.X/framework/usb/inc/wheel.c"
  6211 ;; Parameters:    Size  Location     Type
  6212 ;;  wheel           1    wreg     enum E5758
  6213 ;; Auto vars:     Size  Location     Type
  6214 ;;  wheel           1   18[COMRAM] enum E5758
  6215 ;; Return value:  Size  Location     Type
  6216 ;;                  1    wreg      void 
  6217 ;; Registers used:
  6218 ;;		wreg, status,2, status,0
  6219 ;; Tracked objects:
  6220 ;;		On entry : 0/0
  6221 ;;		On exit  : 0/0
  6222 ;;		Unchanged: 0/0
  6223 ;; Data sizes:     COMRAM   BANK0   BANK1   BANK2   BANK3   BANK4   BANK5   BANK6   BANK7
  6224 ;;      Params:         0       0       0       0       0       0       0       0       0
  6225 ;;      Locals:         1       0       0       0       0       0       0       0       0
  6226 ;;      Temps:          0       0       0       0       0       0       0       0       0
  6227 ;;      Totals:         1       0       0       0       0       0       0       0       0
  6228 ;;Total ram usage:        1 bytes
  6229 ;; Hardware stack levels used:    1
  6230 ;; Hardware stack levels required when called:    1
  6231 ;; This function calls:
  6232 ;;		Nothing
  6233 ;; This function is called by:
  6234 ;;		_SYSTEM_Initialize
  6235 ;; This function uses a non-reentrant model
  6236 ;;
  6237                           
  6238                           	psect	text21
  6239  00195C                     __ptext21:
  6240                           	opt stack 0
  6241  00195C                     _WHEEL_Enable:
  6242                           	opt stack 26
  6243                           
  6244                           ;incstack = 0
  6245                           ;WHEEL_Enable@wheel stored from wreg
  6246  00195C  6E42               	movwf	WHEEL_Enable@wheel,c
  6247                           
  6248                           ;wheel.c: 95: switch(wheel)
  6249  00195E  D01C               	goto	l840
  6250  001960                     l841:
  6251                           
  6252                           ;wheel.c: 98: TRISAbits.TRISA0 = 1;
  6253  001960  8092               	bsf	3986,0,c	;volatile
  6254                           
  6255                           ;wheel.c: 99: if (WHEEL_Type == 0)
  6256  001962  501E               	movf	_WHEEL_Type,w,c
  6257  001964  A4D8               	btfss	status,2,c
  6258  001966  D00E               	goto	l842
  6259                           
  6260                           ;wheel.c: 100: {
  6261                           ;wheel.c: 101: ANSELAbits.ANSA0 = 0;
  6262  001968  010F               	movlb	15	; () banked
  6263  00196A  915B               	bcf	91,0,b	;volatile
  6264                           
  6265                           ;wheel.c: 102: ADCON1bits.CHSN3 = 0b1;
  6266  00196C  86C1               	bsf	4033,3,c	;volatile
  6267                           
  6268                           ; BSR set to: 15
  6269                           ;wheel.c: 103: ADCON1bits.NVCFG = 0;
  6270  00196E  0EFC               	movlw	-4
  6271  001970  16C1               	andwf	4033,f,c	;volatile
  6272                           
  6273                           ;wheel.c: 104: ADCON1bits.PVCFG = 0;
  6274  001972  0EF3               	movlw	-13
  6275  001974  16C1               	andwf	4033,f,c	;volatile
  6276                           
  6277                           ; BSR set to: 15
  6278                           ;wheel.c: 105: ADCON0bits.CHS = 0b0000;
  6279  001976  94C2               	bcf	4034,2,c	;volatile
  6280  001978  96C2               	bcf	4034,3,c	;volatile
  6281  00197A  98C2               	bcf	4034,4,c	;volatile
  6282  00197C  9AC2               	bcf	4034,5,c	;volatile
  6283  00197E  9CC2               	bcf	4034,6,c	;volatile
  6284                           
  6285                           ; BSR set to: 15
  6286                           ;wheel.c: 106: ADCON0bits.ADON = 1;
  6287  001980  80C2               	bsf	4034,0,c	;volatile
  6288                           
  6289                           ;wheel.c: 107: }
  6290  001982  0012               	return	
  6291  001984                     l842:
  6292                           
  6293                           ;wheel.c: 108: else if(WHEEL_Type == 1)
  6294                           
  6295                           ; BSR set to: 15
  6296  001984  041E               	decf	_WHEEL_Type,w,c
  6297  001986  A4D8               	btfss	status,2,c
  6298  001988  0012               	return	
  6299                           
  6300                           ;wheel.c: 109: {
  6301                           ;wheel.c: 110: TRISAbits.TRISA1 = 1;
  6302  00198A  8292               	bsf	3986,1,c	;volatile
  6303                           
  6304                           ;wheel.c: 111: TRISAbits.TRISA2 = 1;
  6305  00198C  8492               	bsf	3986,2,c	;volatile
  6306                           
  6307                           ;wheel.c: 113: ANSELAbits.ANSA0 = 1;
  6308  00198E  010F               	movlb	15	; () banked
  6309  001990  815B               	bsf	91,0,b	;volatile
  6310                           
  6311                           ;wheel.c: 114: ANSELAbits.ANSA1 = 1;
  6312  001992  835B               	bsf	91,1,b	;volatile
  6313                           
  6314                           ;wheel.c: 115: ANSELAbits.ANSA2 = 1;
  6315  001994  855B               	bsf	91,2,b	;volatile
  6316                           
  6317                           ; BSR set to: 15
  6318                           ;wheel.c: 119: }
  6319                           
  6320                           ; BSR set to: 15
  6321                           ;wheel.c: 118: break;
  6322                           
  6323                           ;wheel.c: 116: }
  6324                           ;wheel.c: 117: case WHEEL_NONE:
  6325                           
  6326                           ; BSR set to: 15
  6327                           
  6328                           ; BSR set to: 15
  6329  001996  0012               	return	
  6330  001998                     l840:
  6331                           
  6332                           ; BSR set to: 15
  6333  001998  5042               	movf	WHEEL_Enable@wheel,w,c
  6334                           
  6335                           ; Switch size 1, requested type "space"
  6336                           ; Number of cases is 2, Range of values is 0 to 1
  6337                           ; switch strategies available:
  6338                           ; Name         Instructions Cycles
  6339                           ; simple_byte            7     4 (average)
  6340                           ;	Chosen strategy is simple_byte
  6341  00199A  0A00               	xorlw	0	; case 0
  6342  00199C  B4D8               	btfsc	status,2,c
  6343  00199E  0012               	return	
  6344  0019A0  0A01               	xorlw	1	; case 1
  6345  0019A2  A4D8               	btfss	status,2,c
  6346  0019A4  0012               	return	
  6347  0019A6  D7DC               	goto	l841
  6348  0019A8                     __end_of_WHEEL_Enable:
  6349                           	opt stack 0
  6350                           tblptru	equ	0xFF8
  6351                           tblptrh	equ	0xFF7
  6352                           tblptrl	equ	0xFF6
  6353                           tablat	equ	0xFF5
  6354                           prodh	equ	0xFF4
  6355                           prodl	equ	0xFF3
  6356                           indf0	equ	0xFEF
  6357                           postinc0	equ	0xFEE
  6358                           fsr0h	equ	0xFEA
  6359                           fsr0l	equ	0xFE9
  6360                           wreg	equ	0xFE8
  6361                           indf2	equ	0xFDF
  6362                           postinc2	equ	0xFDE
  6363                           postdec2	equ	0xFDD
  6364                           plusw2	equ	0xFDB
  6365                           fsr2h	equ	0xFDA
  6366                           fsr2l	equ	0xFD9
  6367                           status	equ	0xFD8
  6368                           
  6369 ;; *************** function _LED_Enable *****************
  6370 ;; Defined at:
  6371 ;;		line 228 in file "../../../../../../bsp/picdem_fs_usb_k50/leds.c"
  6372 ;; Parameters:    Size  Location     Type
  6373 ;;  led             1    wreg     enum E2
  6374 ;; Auto vars:     Size  Location     Type
  6375 ;;  led             1   18[COMRAM] enum E2
  6376 ;; Return value:  Size  Location     Type
  6377 ;;                  1    wreg      void 
  6378 ;; Registers used:
  6379 ;;		wreg, status,2, status,0
  6380 ;; Tracked objects:
  6381 ;;		On entry : 0/0
  6382 ;;		On exit  : 0/0
  6383 ;;		Unchanged: 0/0
  6384 ;; Data sizes:     COMRAM   BANK0   BANK1   BANK2   BANK3   BANK4   BANK5   BANK6   BANK7
  6385 ;;      Params:         0       0       0       0       0       0       0       0       0
  6386 ;;      Locals:         1       0       0       0       0       0       0       0       0
  6387 ;;      Temps:          0       0       0       0       0       0       0       0       0
  6388 ;;      Totals:         1       0       0       0       0       0       0       0       0
  6389 ;;Total ram usage:        1 bytes
  6390 ;; Hardware stack levels used:    1
  6391 ;; Hardware stack levels required when called:    1
  6392 ;; This function calls:
  6393 ;;		Nothing
  6394 ;; This function is called by:
  6395 ;;		_SYSTEM_Initialize
  6396 ;; This function uses a non-reentrant model
  6397 ;;
  6398                           
  6399                           	psect	text22
  6400  0019EE                     __ptext22:
  6401                           	opt stack 0
  6402  0019EE                     _LED_Enable:
  6403                           	opt stack 26
  6404                           
  6405                           ;incstack = 0
  6406                           ;LED_Enable@led stored from wreg
  6407  0019EE  6E42               	movwf	LED_Enable@led,c
  6408                           
  6409                           ;leds.c: 230: switch(led)
  6410  0019F0  D010               	goto	l99
  6411  0019F2                     l100:
  6412                           
  6413                           ;leds.c: 233: TRISDbits.TRISD0 = 0;
  6414  0019F2  9095               	bcf	3989,0,c	;volatile
  6415                           
  6416                           ;leds.c: 234: ANSELDbits.ANSD0 = 0;
  6417  0019F4  010F               	movlb	15	; () banked
  6418  0019F6  915E               	bcf	94,0,b	;volatile
  6419                           
  6420                           ;leds.c: 235: break;
  6421  0019F8  0012               	return	
  6422  0019FA                     l102:
  6423                           
  6424                           ;leds.c: 238: TRISDbits.TRISD1 = 0;
  6425  0019FA  9295               	bcf	3989,1,c	;volatile
  6426                           
  6427                           ;leds.c: 239: ANSELDbits.ANSD0 = 0;
  6428  0019FC  010F               	movlb	15	; () banked
  6429  0019FE  915E               	bcf	94,0,b	;volatile
  6430                           
  6431                           ;leds.c: 240: break;
  6432  001A00  0012               	return	
  6433  001A02                     l103:
  6434                           
  6435                           ;leds.c: 243: TRISDbits.TRISD2 = 0;
  6436  001A02  9495               	bcf	3989,2,c	;volatile
  6437                           
  6438                           ;leds.c: 244: ANSELDbits.ANSD0 = 0;
  6439  001A04  010F               	movlb	15	; () banked
  6440  001A06  915E               	bcf	94,0,b	;volatile
  6441                           
  6442                           ;leds.c: 245: break;
  6443  001A08  0012               	return	
  6444  001A0A                     l104:
  6445                           
  6446                           ;leds.c: 248: TRISDbits.TRISD3 = 0;
  6447  001A0A  9695               	bcf	3989,3,c	;volatile
  6448                           
  6449                           ;leds.c: 249: ANSELDbits.ANSD0 = 0;
  6450  001A0C  010F               	movlb	15	; () banked
  6451  001A0E  915E               	bcf	94,0,b	;volatile
  6452                           
  6453                           ; BSR set to: 15
  6454                           ;leds.c: 254: }
  6455                           
  6456                           ; BSR set to: 15
  6457                           ;leds.c: 253: break;
  6458                           
  6459                           ;leds.c: 252: case LED_NONE:
  6460                           
  6461                           ;leds.c: 250: break;
  6462  001A10  0012               	return	
  6463  001A12                     l99:
  6464                           
  6465                           ; BSR set to: 15
  6466  001A12  5042               	movf	LED_Enable@led,w,c
  6467                           
  6468                           ; Switch size 1, requested type "space"
  6469                           ; Number of cases is 5, Range of values is 0 to 4
  6470                           ; switch strategies available:
  6471                           ; Name         Instructions Cycles
  6472                           ; simple_byte           16     9 (average)
  6473                           ;	Chosen strategy is simple_byte
  6474  001A14  0A00               	xorlw	0	; case 0
  6475  001A16  B4D8               	btfsc	status,2,c
  6476  001A18  0012               	return	
  6477  001A1A  0A01               	xorlw	1	; case 1
  6478  001A1C  B4D8               	btfsc	status,2,c
  6479  001A1E  D7E9               	goto	l100
  6480  001A20  0A03               	xorlw	3	; case 2
  6481  001A22  B4D8               	btfsc	status,2,c
  6482  001A24  D7EA               	goto	l102
  6483  001A26  0A01               	xorlw	1	; case 3
  6484  001A28  B4D8               	btfsc	status,2,c
  6485  001A2A  D7EB               	goto	l103
  6486  001A2C  0A07               	xorlw	7	; case 4
  6487  001A2E  A4D8               	btfss	status,2,c
  6488  001A30  0012               	return	
  6489  001A32  D7EB               	goto	l104
  6490  001A34                     __end_of_LED_Enable:
  6491                           	opt stack 0
  6492                           tblptru	equ	0xFF8
  6493                           tblptrh	equ	0xFF7
  6494                           tblptrl	equ	0xFF6
  6495                           tablat	equ	0xFF5
  6496                           prodh	equ	0xFF4
  6497                           prodl	equ	0xFF3
  6498                           indf0	equ	0xFEF
  6499                           postinc0	equ	0xFEE
  6500                           fsr0h	equ	0xFEA
  6501                           fsr0l	equ	0xFE9
  6502                           wreg	equ	0xFE8
  6503                           indf2	equ	0xFDF
  6504                           postinc2	equ	0xFDE
  6505                           postdec2	equ	0xFDD
  6506                           plusw2	equ	0xFDB
  6507                           fsr2h	equ	0xFDA
  6508                           fsr2l	equ	0xFD9
  6509                           status	equ	0xFD8
  6510                           
  6511 ;; *************** function _BUTTON_Enable *****************
  6512 ;; Defined at:
  6513 ;;		line 160 in file "../../../../../../bsp/picdem_fs_usb_k50/buttons.c"
  6514 ;; Parameters:    Size  Location     Type
  6515 ;;  button          1    wreg     enum E5727
  6516 ;; Auto vars:     Size  Location     Type
  6517 ;;  button          1   18[COMRAM] enum E5727
  6518 ;; Return value:  Size  Location     Type
  6519 ;;                  1    wreg      void 
  6520 ;; Registers used:
  6521 ;;		wreg, status,2, status,0
  6522 ;; Tracked objects:
  6523 ;;		On entry : 0/0
  6524 ;;		On exit  : 0/0
  6525 ;;		Unchanged: 0/0
  6526 ;; Data sizes:     COMRAM   BANK0   BANK1   BANK2   BANK3   BANK4   BANK5   BANK6   BANK7
  6527 ;;      Params:         0       0       0       0       0       0       0       0       0
  6528 ;;      Locals:         1       0       0       0       0       0       0       0       0
  6529 ;;      Temps:          0       0       0       0       0       0       0       0       0
  6530 ;;      Totals:         1       0       0       0       0       0       0       0       0
  6531 ;;Total ram usage:        1 bytes
  6532 ;; Hardware stack levels used:    1
  6533 ;; Hardware stack levels required when called:    1
  6534 ;; This function calls:
  6535 ;;		Nothing
  6536 ;; This function is called by:
  6537 ;;		_SYSTEM_Initialize
  6538 ;; This function uses a non-reentrant model
  6539 ;;
  6540                           
  6541                           	psect	text23
  6542  00138E                     __ptext23:
  6543                           	opt stack 0
  6544  00138E                     _BUTTON_Enable:
  6545                           	opt stack 26
  6546                           
  6547                           ;incstack = 0
  6548                           ;BUTTON_Enable@button stored from wreg
  6549  00138E  6E42               	movwf	BUTTON_Enable@button,c
  6550                           
  6551                           ;buttons.c: 162: switch(button)
  6552  001390  D030               	goto	l34
  6553  001392                     l35:
  6554                           
  6555                           ;buttons.c: 165: TRISBbits.TRISB7 = 1;
  6556  001392  8E93               	bsf	3987,7,c	;volatile
  6557                           
  6558                           ;buttons.c: 166: break;
  6559  001394  0012               	return	
  6560  001396                     l37:
  6561                           
  6562                           ;buttons.c: 169: TRISBbits.TRISB6 = 1;
  6563  001396  8C93               	bsf	3987,6,c	;volatile
  6564                           
  6565                           ;buttons.c: 170: break;
  6566  001398  0012               	return	
  6567  00139A                     l38:
  6568                           
  6569                           ;buttons.c: 173: TRISBbits.TRISB5 = 1;
  6570  00139A  8A93               	bsf	3987,5,c	;volatile
  6571                           
  6572                           ;buttons.c: 174: ANSELBbits.ANSB5 = 0;
  6573  00139C  010F               	movlb	15	; () banked
  6574  00139E  9B5C               	bcf	92,5,b	;volatile
  6575                           
  6576                           ;buttons.c: 175: break;
  6577  0013A0  0012               	return	
  6578  0013A2                     l39:
  6579                           
  6580                           ;buttons.c: 178: TRISBbits.TRISB4 = 1;
  6581  0013A2  8893               	bsf	3987,4,c	;volatile
  6582                           
  6583                           ;buttons.c: 179: ANSELBbits.ANSB4 = 0;
  6584  0013A4  010F               	movlb	15	; () banked
  6585  0013A6  995C               	bcf	92,4,b	;volatile
  6586                           
  6587                           ;buttons.c: 180: break;
  6588  0013A8  0012               	return	
  6589  0013AA                     l40:
  6590                           
  6591                           ;buttons.c: 183: TRISBbits.TRISB3 = 1;
  6592  0013AA  8693               	bsf	3987,3,c	;volatile
  6593                           
  6594                           ;buttons.c: 184: ANSELBbits.ANSB3 = 0;
  6595  0013AC  010F               	movlb	15	; () banked
  6596  0013AE  975C               	bcf	92,3,b	;volatile
  6597                           
  6598                           ;buttons.c: 185: break;
  6599  0013B0  0012               	return	
  6600  0013B2                     l41:
  6601                           
  6602                           ;buttons.c: 188: TRISBbits.TRISB2 = 1;
  6603  0013B2  8493               	bsf	3987,2,c	;volatile
  6604                           
  6605                           ;buttons.c: 189: ANSELBbits.ANSB2 = 0;
  6606  0013B4  010F               	movlb	15	; () banked
  6607  0013B6  955C               	bcf	92,2,b	;volatile
  6608                           
  6609                           ;buttons.c: 190: break;
  6610  0013B8  0012               	return	
  6611  0013BA                     l42:
  6612                           
  6613                           ;buttons.c: 193: TRISBbits.TRISB1 = 1;
  6614  0013BA  8293               	bsf	3987,1,c	;volatile
  6615                           
  6616                           ;buttons.c: 194: ANSELBbits.ANSB1 = 0;
  6617  0013BC  010F               	movlb	15	; () banked
  6618  0013BE  935C               	bcf	92,1,b	;volatile
  6619                           
  6620                           ;buttons.c: 195: break;
  6621  0013C0  0012               	return	
  6622  0013C2                     l43:
  6623                           
  6624                           ;buttons.c: 198: TRISBbits.TRISB0 = 1;
  6625  0013C2  8093               	bsf	3987,0,c	;volatile
  6626                           
  6627                           ;buttons.c: 199: ANSELBbits.ANSB0 = 0;
  6628  0013C4  010F               	movlb	15	; () banked
  6629  0013C6  915C               	bcf	92,0,b	;volatile
  6630                           
  6631                           ;buttons.c: 200: break;
  6632  0013C8  0012               	return	
  6633  0013CA                     l44:
  6634                           
  6635                           ;buttons.c: 203: TRISDbits.TRISD7 = 1;
  6636  0013CA  8E95               	bsf	3989,7,c	;volatile
  6637                           
  6638                           ;buttons.c: 204: ANSELDbits.ANSD7 = 0;
  6639  0013CC  010F               	movlb	15	; () banked
  6640  0013CE  9F5E               	bcf	94,7,b	;volatile
  6641                           
  6642                           ;buttons.c: 205: break;
  6643  0013D0  0012               	return	
  6644  0013D2                     l45:
  6645                           
  6646                           ;buttons.c: 208: TRISDbits.TRISD6 = 1;
  6647  0013D2  8C95               	bsf	3989,6,c	;volatile
  6648                           
  6649                           ;buttons.c: 209: ANSELDbits.ANSD6 = 0;
  6650  0013D4  010F               	movlb	15	; () banked
  6651  0013D6  9D5E               	bcf	94,6,b	;volatile
  6652                           
  6653                           ;buttons.c: 210: break;
  6654  0013D8  0012               	return	
  6655  0013DA                     l46:
  6656                           
  6657                           ;buttons.c: 213: TRISDbits.TRISD5 = 1;
  6658  0013DA  8A95               	bsf	3989,5,c	;volatile
  6659                           
  6660                           ;buttons.c: 214: ANSELDbits.ANSD5 = 0;
  6661  0013DC  010F               	movlb	15	; () banked
  6662  0013DE  9B5E               	bcf	94,5,b	;volatile
  6663                           
  6664                           ;buttons.c: 215: break;
  6665  0013E0  0012               	return	
  6666  0013E2                     l47:
  6667                           
  6668                           ;buttons.c: 218: TRISDbits.TRISD4 = 1;
  6669  0013E2  8895               	bsf	3989,4,c	;volatile
  6670                           
  6671                           ;buttons.c: 219: ANSELDbits.ANSD4 = 0;
  6672  0013E4  010F               	movlb	15	; () banked
  6673  0013E6  995E               	bcf	94,4,b	;volatile
  6674                           
  6675                           ;buttons.c: 220: break;
  6676  0013E8  0012               	return	
  6677  0013EA                     l48:
  6678                           
  6679                           ;buttons.c: 223: TRISDbits.TRISD3 = 1;
  6680  0013EA  8695               	bsf	3989,3,c	;volatile
  6681                           
  6682                           ;buttons.c: 224: ANSELDbits.ANSD3 = 0;
  6683  0013EC  010F               	movlb	15	; () banked
  6684  0013EE  975E               	bcf	94,3,b	;volatile
  6685                           
  6686                           ; BSR set to: 15
  6687                           ;buttons.c: 229: }
  6688                           
  6689                           ; BSR set to: 15
  6690                           ;buttons.c: 228: break;
  6691                           
  6692                           ;buttons.c: 227: case BUTTON_NONE:
  6693                           
  6694                           ;buttons.c: 225: break;
  6695  0013F0  0012               	return	
  6696  0013F2                     l34:
  6697                           
  6698                           ; BSR set to: 15
  6699  0013F2  5042               	movf	BUTTON_Enable@button,w,c
  6700                           
  6701                           ; Switch size 1, requested type "space"
  6702                           ; Number of cases is 14, Range of values is 0 to 13
  6703                           ; switch strategies available:
  6704                           ; Name         Instructions Cycles
  6705                           ; simple_byte           43    22 (average)
  6706                           ;	Chosen strategy is simple_byte
  6707  0013F4  0A00               	xorlw	0	; case 0
  6708  0013F6  B4D8               	btfsc	status,2,c
  6709  0013F8  0012               	return	
  6710  0013FA  0A01               	xorlw	1	; case 1
  6711  0013FC  B4D8               	btfsc	status,2,c
  6712  0013FE  D7C9               	goto	l35
  6713  001400  0A03               	xorlw	3	; case 2
  6714  001402  B4D8               	btfsc	status,2,c
  6715  001404  D7C8               	goto	l37
  6716  001406  0A01               	xorlw	1	; case 3
  6717  001408  B4D8               	btfsc	status,2,c
  6718  00140A  D7C7               	goto	l38
  6719  00140C  0A07               	xorlw	7	; case 4
  6720  00140E  B4D8               	btfsc	status,2,c
  6721  001410  D7C8               	goto	l39
  6722  001412  0A01               	xorlw	1	; case 5
  6723  001414  B4D8               	btfsc	status,2,c
  6724  001416  D7C9               	goto	l40
  6725  001418  0A03               	xorlw	3	; case 6
  6726  00141A  B4D8               	btfsc	status,2,c
  6727  00141C  D7CA               	goto	l41
  6728  00141E  0A01               	xorlw	1	; case 7
  6729  001420  B4D8               	btfsc	status,2,c
  6730  001422  D7CB               	goto	l42
  6731  001424  0A0F               	xorlw	15	; case 8
  6732  001426  B4D8               	btfsc	status,2,c
  6733  001428  D7CC               	goto	l43
  6734  00142A  0A01               	xorlw	1	; case 9
  6735  00142C  B4D8               	btfsc	status,2,c
  6736  00142E  D7CD               	goto	l44
  6737  001430  0A03               	xorlw	3	; case 10
  6738  001432  B4D8               	btfsc	status,2,c
  6739  001434  D7CE               	goto	l45
  6740  001436  0A01               	xorlw	1	; case 11
  6741  001438  B4D8               	btfsc	status,2,c
  6742  00143A  D7CF               	goto	l46
  6743  00143C  0A07               	xorlw	7	; case 12
  6744  00143E  B4D8               	btfsc	status,2,c
  6745  001440  D7D0               	goto	l47
  6746  001442  0A01               	xorlw	1	; case 13
  6747  001444  A4D8               	btfss	status,2,c
  6748  001446  0012               	return	
  6749  001448  D7D0               	goto	l48
  6750  00144A                     __end_of_BUTTON_Enable:
  6751                           	opt stack 0
  6752                           tblptru	equ	0xFF8
  6753                           tblptrh	equ	0xFF7
  6754                           tblptrl	equ	0xFF6
  6755                           tablat	equ	0xFF5
  6756                           prodh	equ	0xFF4
  6757                           prodl	equ	0xFF3
  6758                           indf0	equ	0xFEF
  6759                           postinc0	equ	0xFEE
  6760                           fsr0h	equ	0xFEA
  6761                           fsr0l	equ	0xFE9
  6762                           wreg	equ	0xFE8
  6763                           indf2	equ	0xFDF
  6764                           postinc2	equ	0xFDE
  6765                           postdec2	equ	0xFDD
  6766                           plusw2	equ	0xFDB
  6767                           fsr2h	equ	0xFDA
  6768                           fsr2l	equ	0xFD9
  6769                           status	equ	0xFD8
  6770                           
  6771 ;; *************** function _APP_LEDUpdateUSBStatus *****************
  6772 ;; Defined at:
  6773 ;;		line 50 in file "../demo_src/app_led_usb_status.c"
  6774 ;; Parameters:    Size  Location     Type
  6775 ;;		None
  6776 ;; Auto vars:     Size  Location     Type
  6777 ;;		None
  6778 ;; Return value:  Size  Location     Type
  6779 ;;                  1    wreg      void 
  6780 ;; Registers used:
  6781 ;;		wreg, status,2, status,0, cstack
  6782 ;; Tracked objects:
  6783 ;;		On entry : 0/0
  6784 ;;		On exit  : 0/0
  6785 ;;		Unchanged: 0/0
  6786 ;; Data sizes:     COMRAM   BANK0   BANK1   BANK2   BANK3   BANK4   BANK5   BANK6   BANK7
  6787 ;;      Params:         0       0       0       0       0       0       0       0       0
  6788 ;;      Locals:         0       0       0       0       0       0       0       0       0
  6789 ;;      Temps:          0       0       0       0       0       0       0       0       0
  6790 ;;      Totals:         0       0       0       0       0       0       0       0       0
  6791 ;;Total ram usage:        0 bytes
  6792 ;; Hardware stack levels used:    1
  6793 ;; Hardware stack levels required when called:    2
  6794 ;; This function calls:
  6795 ;;		_LED_Off
  6796 ;;		_LED_On
  6797 ;; This function is called by:
  6798 ;;		_USER_USB_CALLBACK_EVENT_HANDLER
  6799 ;; This function uses a non-reentrant model
  6800 ;;
  6801                           
  6802                           	psect	text24
  6803  0017B8                     __ptext24:
  6804                           	opt stack 0
  6805  0017B8                     _APP_LEDUpdateUSBStatus:
  6806                           	opt stack 26
  6807                           
  6808                           ;app_led_usb_status.c: 52: static uint16_t ledCount = 0;
  6809                           ;app_led_usb_status.c: 54: if(UCONbits.SUSPND == 1)
  6810                           
  6811                           ;incstack = 0
  6812  0017B8  A260               	btfss	3936,1,c	;volatile
  6813  0017BA  D036               	goto	l625
  6814                           
  6815                           ;app_led_usb_status.c: 55: {
  6816                           ;app_led_usb_status.c: 56: LED_Off(LED_D1);
  6817  0017BC  0E01               	movlw	1
  6818  0017BE  ECB9  F00D         	call	_LED_Off
  6819                           
  6820                           ;app_led_usb_status.c: 57: return;
  6821  0017C2  0012               	return	
  6822  0017C4                     
  6823                           ;app_led_usb_status.c: 65: if(ledCount == 1)
  6824  0017C4  0415               	decf	APP_LEDUpdateUSBStatus@ledCount,w,c
  6825  0017C6  1016               	iorwf	APP_LEDUpdateUSBStatus@ledCount+1,w,c
  6826  0017C8  A4D8               	btfss	status,2,c
  6827  0017CA  D004               	goto	l627
  6828                           
  6829                           ;app_led_usb_status.c: 66: {
  6830                           ;app_led_usb_status.c: 67: LED_On(LED_D1);
  6831  0017CC  0E01               	movlw	1
  6832  0017CE  EC9E  F00D         	call	_LED_On
  6833                           
  6834                           ;app_led_usb_status.c: 68: }
  6835  0017D2  D02F               	goto	l632
  6836  0017D4                     l627:
  6837                           
  6838                           ;app_led_usb_status.c: 69: else if(ledCount == 75)
  6839  0017D4  0E4B               	movlw	75
  6840  0017D6  1815               	xorwf	APP_LEDUpdateUSBStatus@ledCount,w,c
  6841  0017D8  1016               	iorwf	APP_LEDUpdateUSBStatus@ledCount+1,w,c
  6842  0017DA  A4D8               	btfss	status,2,c
  6843  0017DC  D004               	goto	l629
  6844                           
  6845                           ;app_led_usb_status.c: 70: {
  6846                           ;app_led_usb_status.c: 71: LED_Off(LED_D1);
  6847  0017DE  0E01               	movlw	1
  6848  0017E0  ECB9  F00D         	call	_LED_Off
  6849                           
  6850                           ;app_led_usb_status.c: 72: }
  6851  0017E4  D026               	goto	l632
  6852  0017E6                     l629:
  6853                           
  6854                           ;app_led_usb_status.c: 73: else if(ledCount > 150)
  6855  0017E6  5016               	movf	APP_LEDUpdateUSBStatus@ledCount+1,w,c
  6856  0017E8  E104               	bnz	u4080
  6857  0017EA  0E97               	movlw	151
  6858  0017EC  5C15               	subwf	APP_LEDUpdateUSBStatus@ledCount,w,c
  6859  0017EE  A0D8               	btfss	status,0,c
  6860  0017F0  D020               	goto	l632
  6861  0017F2                     u4080:
  6862                           
  6863                           ;app_led_usb_status.c: 74: {
  6864                           ;app_led_usb_status.c: 75: ledCount = 0;
  6865  0017F2  0E00               	movlw	0
  6866  0017F4  6E16               	movwf	APP_LEDUpdateUSBStatus@ledCount+1,c
  6867  0017F6  0E00               	movlw	0
  6868  0017F8  6E15               	movwf	APP_LEDUpdateUSBStatus@ledCount,c
  6869                           
  6870                           ;app_led_usb_status.c: 76: }
  6871                           ;app_led_usb_status.c: 77: break;
  6872  0017FA  D01B               	goto	l632
  6873  0017FC                     
  6874                           ;app_led_usb_status.c: 82: if(ledCount == 1)
  6875  0017FC  0415               	decf	APP_LEDUpdateUSBStatus@ledCount,w,c
  6876  0017FE  1016               	iorwf	APP_LEDUpdateUSBStatus@ledCount+1,w,c
  6877  001800  A4D8               	btfss	status,2,c
  6878  001802  D004               	goto	l634
  6879                           
  6880                           ;app_led_usb_status.c: 83: {
  6881                           ;app_led_usb_status.c: 84: LED_On(LED_D1);
  6882  001804  0E01               	movlw	1
  6883  001806  EC9E  F00D         	call	_LED_On
  6884                           
  6885                           ;app_led_usb_status.c: 85: }
  6886  00180A  D013               	goto	l632
  6887  00180C                     l634:
  6888                           
  6889                           ;app_led_usb_status.c: 86: else if(ledCount == 50)
  6890  00180C  0E32               	movlw	50
  6891  00180E  1815               	xorwf	APP_LEDUpdateUSBStatus@ledCount,w,c
  6892  001810  1016               	iorwf	APP_LEDUpdateUSBStatus@ledCount+1,w,c
  6893  001812  A4D8               	btfss	status,2,c
  6894  001814  D004               	goto	l636
  6895                           
  6896                           ;app_led_usb_status.c: 87: {
  6897                           ;app_led_usb_status.c: 88: LED_Off(LED_D1);
  6898  001816  0E01               	movlw	1
  6899  001818  ECB9  F00D         	call	_LED_Off
  6900                           
  6901                           ;app_led_usb_status.c: 89: }
  6902  00181C  D00A               	goto	l632
  6903  00181E                     l636:
  6904                           
  6905                           ;app_led_usb_status.c: 90: else if(ledCount > 950)
  6906  00181E  0EB7               	movlw	183
  6907  001820  5C15               	subwf	APP_LEDUpdateUSBStatus@ledCount,w,c
  6908  001822  0E03               	movlw	3
  6909  001824  5816               	subwfb	APP_LEDUpdateUSBStatus@ledCount+1,w,c
  6910  001826  D7E3               	goto	L10
  6911  001828                     l625:
  6912  001828  502C               	movf	_USBDeviceState,w,c
  6913                           
  6914                           ; Switch size 1, requested type "space"
  6915                           ; Number of cases is 1, Range of values is 32 to 32
  6916                           ; switch strategies available:
  6917                           ; Name         Instructions Cycles
  6918                           ; simple_byte            4     3 (average)
  6919                           ;	Chosen strategy is simple_byte
  6920  00182A  0A20               	xorlw	32	; case 32
  6921  00182C  B4D8               	btfsc	status,2,c
  6922  00182E  D7CA               	goto	l626
  6923  001830  D7E5               	goto	l633
  6924  001832                     l632:
  6925                           
  6926                           ;app_led_usb_status.c: 98: ledCount++;
  6927  001832  4A15               	infsnz	APP_LEDUpdateUSBStatus@ledCount,f,c
  6928  001834  2A16               	incf	APP_LEDUpdateUSBStatus@ledCount+1,f,c
  6929  001836  0012               	return		;funcret
  6930  001838                     __end_of_APP_LEDUpdateUSBStatus:
  6931                           	opt stack 0
  6932                           tblptru	equ	0xFF8
  6933                           tblptrh	equ	0xFF7
  6934                           tblptrl	equ	0xFF6
  6935                           tablat	equ	0xFF5
  6936                           prodh	equ	0xFF4
  6937                           prodl	equ	0xFF3
  6938                           indf0	equ	0xFEF
  6939                           postinc0	equ	0xFEE
  6940                           fsr0h	equ	0xFEA
  6941                           fsr0l	equ	0xFE9
  6942                           wreg	equ	0xFE8
  6943                           indf2	equ	0xFDF
  6944                           postinc2	equ	0xFDE
  6945                           postdec2	equ	0xFDD
  6946                           plusw2	equ	0xFDB
  6947                           fsr2h	equ	0xFDA
  6948                           fsr2l	equ	0xFD9
  6949                           status	equ	0xFD8
  6950                           
  6951 ;; *************** function _LED_On *****************
  6952 ;; Defined at:
  6953 ;;		line 67 in file "../../../../../../bsp/picdem_fs_usb_k50/leds.c"
  6954 ;; Parameters:    Size  Location     Type
  6955 ;;  led             1    wreg     enum E2
  6956 ;; Auto vars:     Size  Location     Type
  6957 ;;  led             1   18[COMRAM] enum E2
  6958 ;; Return value:  Size  Location     Type
  6959 ;;                  1    wreg      void 
  6960 ;; Registers used:
  6961 ;;		wreg, status,2, status,0
  6962 ;; Tracked objects:
  6963 ;;		On entry : 0/0
  6964 ;;		On exit  : 0/0
  6965 ;;		Unchanged: 0/0
  6966 ;; Data sizes:     COMRAM   BANK0   BANK1   BANK2   BANK3   BANK4   BANK5   BANK6   BANK7
  6967 ;;      Params:         0       0       0       0       0       0       0       0       0
  6968 ;;      Locals:         1       0       0       0       0       0       0       0       0
  6969 ;;      Temps:          0       0       0       0       0       0       0       0       0
  6970 ;;      Totals:         1       0       0       0       0       0       0       0       0
  6971 ;;Total ram usage:        1 bytes
  6972 ;; Hardware stack levels used:    1
  6973 ;; Hardware stack levels required when called:    1
  6974 ;; This function calls:
  6975 ;;		Nothing
  6976 ;; This function is called by:
  6977 ;;		_APP_LEDUpdateUSBStatus
  6978 ;; This function uses a non-reentrant model
  6979 ;;
  6980                           
  6981                           	psect	text25
  6982  001B3C                     __ptext25:
  6983                           	opt stack 0
  6984  001B3C                     _LED_On:
  6985                           	opt stack 26
  6986                           
  6987                           ;incstack = 0
  6988                           ;LED_On@led stored from wreg
  6989  001B3C  6E42               	movwf	LED_On@led,c
  6990                           
  6991                           ;leds.c: 69: switch(led)
  6992  001B3E  D008               	goto	l59
  6993  001B40                     l60:
  6994                           
  6995                           ;leds.c: 72: LATDbits.LATD0 = 1;
  6996  001B40  808C               	bsf	3980,0,c	;volatile
  6997                           
  6998                           ;leds.c: 73: break;
  6999  001B42  0012               	return	
  7000  001B44                     l62:
  7001                           
  7002                           ;leds.c: 76: LATDbits.LATD1 = 1;
  7003  001B44  828C               	bsf	3980,1,c	;volatile
  7004                           
  7005                           ;leds.c: 77: break;
  7006  001B46  0012               	return	
  7007  001B48                     l63:
  7008                           
  7009                           ;leds.c: 80: LATDbits.LATD2 = 1;
  7010  001B48  848C               	bsf	3980,2,c	;volatile
  7011                           
  7012                           ;leds.c: 81: break;
  7013  001B4A  0012               	return	
  7014  001B4C                     l64:
  7015                           
  7016                           ;leds.c: 84: LATDbits.LATD3 = 1;
  7017  001B4C  868C               	bsf	3980,3,c	;volatile
  7018                           
  7019                           ;leds.c: 89: }
  7020                           
  7021                           ;leds.c: 88: break;
  7022                           
  7023                           ;leds.c: 87: case LED_NONE:
  7024                           
  7025                           ;leds.c: 85: break;
  7026  001B4E  0012               	return	
  7027  001B50                     l59:
  7028  001B50  5042               	movf	LED_On@led,w,c
  7029                           
  7030                           ; Switch size 1, requested type "space"
  7031                           ; Number of cases is 5, Range of values is 0 to 4
  7032                           ; switch strategies available:
  7033                           ; Name         Instructions Cycles
  7034                           ; simple_byte           16     9 (average)
  7035                           ;	Chosen strategy is simple_byte
  7036  001B52  0A00               	xorlw	0	; case 0
  7037  001B54  B4D8               	btfsc	status,2,c
  7038  001B56  0012               	return	
  7039  001B58  0A01               	xorlw	1	; case 1
  7040  001B5A  B4D8               	btfsc	status,2,c
  7041  001B5C  D7F1               	goto	l60
  7042  001B5E  0A03               	xorlw	3	; case 2
  7043  001B60  B4D8               	btfsc	status,2,c
  7044  001B62  D7F0               	goto	l62
  7045  001B64  0A01               	xorlw	1	; case 3
  7046  001B66  B4D8               	btfsc	status,2,c
  7047  001B68  D7EF               	goto	l63
  7048  001B6A  0A07               	xorlw	7	; case 4
  7049  001B6C  A4D8               	btfss	status,2,c
  7050  001B6E  0012               	return	
  7051  001B70  D7ED               	goto	l64
  7052  001B72                     __end_of_LED_On:
  7053                           	opt stack 0
  7054                           tblptru	equ	0xFF8
  7055                           tblptrh	equ	0xFF7
  7056                           tblptrl	equ	0xFF6
  7057                           tablat	equ	0xFF5
  7058                           prodh	equ	0xFF4
  7059                           prodl	equ	0xFF3
  7060                           indf0	equ	0xFEF
  7061                           postinc0	equ	0xFEE
  7062                           fsr0h	equ	0xFEA
  7063                           fsr0l	equ	0xFE9
  7064                           wreg	equ	0xFE8
  7065                           indf2	equ	0xFDF
  7066                           postinc2	equ	0xFDE
  7067                           postdec2	equ	0xFDD
  7068                           plusw2	equ	0xFDB
  7069                           fsr2h	equ	0xFDA
  7070                           fsr2l	equ	0xFD9
  7071                           status	equ	0xFD8
  7072                           
  7073 ;; *************** function _LED_Off *****************
  7074 ;; Defined at:
  7075 ;;		line 108 in file "../../../../../../bsp/picdem_fs_usb_k50/leds.c"
  7076 ;; Parameters:    Size  Location     Type
  7077 ;;  led             1    wreg     enum E2
  7078 ;; Auto vars:     Size  Location     Type
  7079 ;;  led             1   18[COMRAM] enum E2
  7080 ;; Return value:  Size  Location     Type
  7081 ;;                  1    wreg      void 
  7082 ;; Registers used:
  7083 ;;		wreg, status,2, status,0
  7084 ;; Tracked objects:
  7085 ;;		On entry : 0/0
  7086 ;;		On exit  : 0/0
  7087 ;;		Unchanged: 0/0
  7088 ;; Data sizes:     COMRAM   BANK0   BANK1   BANK2   BANK3   BANK4   BANK5   BANK6   BANK7
  7089 ;;      Params:         0       0       0       0       0       0       0       0       0
  7090 ;;      Locals:         1       0       0       0       0       0       0       0       0
  7091 ;;      Temps:          0       0       0       0       0       0       0       0       0
  7092 ;;      Totals:         1       0       0       0       0       0       0       0       0
  7093 ;;Total ram usage:        1 bytes
  7094 ;; Hardware stack levels used:    1
  7095 ;; Hardware stack levels required when called:    1
  7096 ;; This function calls:
  7097 ;;		Nothing
  7098 ;; This function is called by:
  7099 ;;		_APP_LEDUpdateUSBStatus
  7100 ;; This function uses a non-reentrant model
  7101 ;;
  7102                           
  7103                           	psect	text26
  7104  001B72                     __ptext26:
  7105                           	opt stack 0
  7106  001B72                     _LED_Off:
  7107                           	opt stack 26
  7108                           
  7109                           ;incstack = 0
  7110                           ;LED_Off@led stored from wreg
  7111  001B72  6E42               	movwf	LED_Off@led,c
  7112                           
  7113                           ;leds.c: 110: switch(led)
  7114  001B74  D008               	goto	l69
  7115  001B76                     l70:
  7116                           
  7117                           ;leds.c: 113: LATDbits.LATD0 = 0;
  7118  001B76  908C               	bcf	3980,0,c	;volatile
  7119                           
  7120                           ;leds.c: 114: break;
  7121  001B78  0012               	return	
  7122  001B7A                     l72:
  7123                           
  7124                           ;leds.c: 117: LATDbits.LATD1 = 0;
  7125  001B7A  928C               	bcf	3980,1,c	;volatile
  7126                           
  7127                           ;leds.c: 118: break;
  7128  001B7C  0012               	return	
  7129  001B7E                     l73:
  7130                           
  7131                           ;leds.c: 121: LATDbits.LATD2 = 0;
  7132  001B7E  948C               	bcf	3980,2,c	;volatile
  7133                           
  7134                           ;leds.c: 122: break;
  7135  001B80  0012               	return	
  7136  001B82                     l74:
  7137                           
  7138                           ;leds.c: 125: LATDbits.LATD3 = 0;
  7139  001B82  968C               	bcf	3980,3,c	;volatile
  7140                           
  7141                           ;leds.c: 130: }
  7142                           
  7143                           ;leds.c: 129: break;
  7144                           
  7145                           ;leds.c: 128: case LED_NONE:
  7146                           
  7147                           ;leds.c: 126: break;
  7148  001B84  0012               	return	
  7149  001B86                     l69:
  7150  001B86  5042               	movf	LED_Off@led,w,c
  7151                           
  7152                           ; Switch size 1, requested type "space"
  7153                           ; Number of cases is 5, Range of values is 0 to 4
  7154                           ; switch strategies available:
  7155                           ; Name         Instructions Cycles
  7156                           ; simple_byte           16     9 (average)
  7157                           ;	Chosen strategy is simple_byte
  7158  001B88  0A00               	xorlw	0	; case 0
  7159  001B8A  B4D8               	btfsc	status,2,c
  7160  001B8C  0012               	return	
  7161  001B8E  0A01               	xorlw	1	; case 1
  7162  001B90  B4D8               	btfsc	status,2,c
  7163  001B92  D7F1               	goto	l70
  7164  001B94  0A03               	xorlw	3	; case 2
  7165  001B96  B4D8               	btfsc	status,2,c
  7166  001B98  D7F0               	goto	l72
  7167  001B9A  0A01               	xorlw	1	; case 3
  7168  001B9C  B4D8               	btfsc	status,2,c
  7169  001B9E  D7EF               	goto	l73
  7170  001BA0  0A07               	xorlw	7	; case 4
  7171  001BA2  A4D8               	btfss	status,2,c
  7172  001BA4  0012               	return	
  7173  001BA6  D7ED               	goto	l74
  7174  001BA8                     __end_of_LED_Off:
  7175                           	opt stack 0
  7176                           tblptru	equ	0xFF8
  7177                           tblptrh	equ	0xFF7
  7178                           tblptrl	equ	0xFF6
  7179                           tablat	equ	0xFF5
  7180                           prodh	equ	0xFF4
  7181                           prodl	equ	0xFF3
  7182                           indf0	equ	0xFEF
  7183                           postinc0	equ	0xFEE
  7184                           fsr0h	equ	0xFEA
  7185                           fsr0l	equ	0xFE9
  7186                           wreg	equ	0xFE8
  7187                           indf2	equ	0xFDF
  7188                           postinc2	equ	0xFDE
  7189                           postdec2	equ	0xFDD
  7190                           plusw2	equ	0xFDB
  7191                           fsr2h	equ	0xFDA
  7192                           fsr2l	equ	0xFD9
  7193                           status	equ	0xFD8
  7194                           
  7195 ;; *************** function _APP_DeviceJoystickInitialize *****************
  7196 ;; Defined at:
  7197 ;;		line 269 in file "../demo_src/app_device_joystick.c"
  7198 ;; Parameters:    Size  Location     Type
  7199 ;;		None
  7200 ;; Auto vars:     Size  Location     Type
  7201 ;;		None
  7202 ;; Return value:  Size  Location     Type
  7203 ;;                  1    wreg      void 
  7204 ;; Registers used:
  7205 ;;		wreg, fsr2l, fsr2h, status,2, status,0, prodl, prodh, cstack
  7206 ;; Tracked objects:
  7207 ;;		On entry : 0/0
  7208 ;;		On exit  : 0/0
  7209 ;;		Unchanged: 0/0
  7210 ;; Data sizes:     COMRAM   BANK0   BANK1   BANK2   BANK3   BANK4   BANK5   BANK6   BANK7
  7211 ;;      Params:         0       0       0       0       0       0       0       0       0
  7212 ;;      Locals:         0       0       0       0       0       0       0       0       0
  7213 ;;      Temps:          0       0       0       0       0       0       0       0       0
  7214 ;;      Totals:         0       0       0       0       0       0       0       0       0
  7215 ;;Total ram usage:        0 bytes
  7216 ;; Hardware stack levels used:    1
  7217 ;; Hardware stack levels required when called:    3
  7218 ;; This function calls:
  7219 ;;		_USBEnableEndpoint
  7220 ;; This function is called by:
  7221 ;;		_USER_USB_CALLBACK_EVENT_HANDLER
  7222 ;; This function uses a non-reentrant model
  7223 ;;
  7224                           
  7225                           	psect	text27
  7226  001C76                     __ptext27:
  7227                           	opt stack 0
  7228  001C76                     _APP_DeviceJoystickInitialize:
  7229                           	opt stack 25
  7230                           
  7231                           ;app_device_joystick.c: 273: lastTransmission = 0;
  7232                           
  7233                           ;incstack = 0
  7234  001C76  0E00               	movlw	0
  7235  001C78  0100               	movlb	0	; () banked
  7236  001C7A  6F74               	movwf	_lastTransmission& (0+255),b
  7237  001C7C  0E00               	movlw	0
  7238  001C7E  6F75               	movwf	(_lastTransmission+1)& (0+255),b
  7239                           
  7240                           ; BSR set to: 0
  7241                           ;app_device_joystick.c: 276: USBEnableEndpoint(1,0x02|0x10|0x08);
  7242  001C80  0E1A               	movlw	26
  7243  001C82  6E4A               	movwf	USBEnableEndpoint@options,c
  7244  001C84  0E01               	movlw	1
  7245  001C86  EC3C  F00D         	call	_USBEnableEndpoint
  7246  001C8A  0012               	return		;funcret
  7247  001C8C                     __end_of_APP_DeviceJoystickInitialize:
  7248                           	opt stack 0
  7249                           tblptru	equ	0xFF8
  7250                           tblptrh	equ	0xFF7
  7251                           tblptrl	equ	0xFF6
  7252                           tablat	equ	0xFF5
  7253                           prodh	equ	0xFF4
  7254                           prodl	equ	0xFF3
  7255                           indf0	equ	0xFEF
  7256                           postinc0	equ	0xFEE
  7257                           fsr0h	equ	0xFEA
  7258                           fsr0l	equ	0xFE9
  7259                           wreg	equ	0xFE8
  7260                           indf2	equ	0xFDF
  7261                           postinc2	equ	0xFDE
  7262                           postdec2	equ	0xFDD
  7263                           plusw2	equ	0xFDB
  7264                           fsr2h	equ	0xFDA
  7265                           fsr2l	equ	0xFD9
  7266                           status	equ	0xFD8
  7267                           
  7268 ;; *************** function _USBEnableEndpoint *****************
  7269 ;; Defined at:
  7270 ;;		line 885 in file "../../../../../../framework/usb/src/usb_device.c"
  7271 ;; Parameters:    Size  Location     Type
  7272 ;;  ep              1    wreg     unsigned char 
  7273 ;;  options         1   26[COMRAM] unsigned char 
  7274 ;; Auto vars:     Size  Location     Type
  7275 ;;  ep              1    2[BANK0 ] unsigned char 
  7276 ;;  p               2    0[BANK0 ] PTR unsigned char 
  7277 ;;		 -> UEP0(1), 
  7278 ;; Return value:  Size  Location     Type
  7279 ;;                  1    wreg      void 
  7280 ;; Registers used:
  7281 ;;		wreg, fsr2l, fsr2h, status,2, status,0, prodl, prodh, cstack
  7282 ;; Tracked objects:
  7283 ;;		On entry : 0/0
  7284 ;;		On exit  : 0/0
  7285 ;;		Unchanged: 0/0
  7286 ;; Data sizes:     COMRAM   BANK0   BANK1   BANK2   BANK3   BANK4   BANK5   BANK6   BANK7
  7287 ;;      Params:         1       0       0       0       0       0       0       0       0
  7288 ;;      Locals:         0       3       0       0       0       0       0       0       0
  7289 ;;      Temps:          0       0       0       0       0       0       0       0       0
  7290 ;;      Totals:         1       3       0       0       0       0       0       0       0
  7291 ;;Total ram usage:        4 bytes
  7292 ;; Hardware stack levels used:    1
  7293 ;; Hardware stack levels required when called:    2
  7294 ;; This function calls:
  7295 ;;		_USBConfigureEndpoint
  7296 ;; This function is called by:
  7297 ;;		_APP_DeviceJoystickInitialize
  7298 ;; This function uses a non-reentrant model
  7299 ;;
  7300                           
  7301                           	psect	text28
  7302  001A78                     __ptext28:
  7303                           	opt stack 0
  7304  001A78                     _USBEnableEndpoint:
  7305                           	opt stack 25
  7306                           
  7307                           ;incstack = 0
  7308                           ;USBEnableEndpoint@ep stored from wreg
  7309  001A78  0100               	movlb	0	; () banked
  7310  001A7A  6FC8               	movwf	USBEnableEndpoint@ep& (0+255),b
  7311                           
  7312                           ;usb_device.c: 887: unsigned char* p;
  7313                           ;usb_device.c: 891: if(options & 0x04)
  7314  001A7C  A44A               	btfss	USBEnableEndpoint@options,2,c
  7315  001A7E  D006               	goto	l282
  7316                           
  7317                           ;usb_device.c: 892: {
  7318                           ;usb_device.c: 893: USBConfigureEndpoint(ep, 0);
  7319  001A80  0E00               	movlw	0
  7320  001A82  6E42               	movwf	USBConfigureEndpoint@direction,c
  7321  001A84  0100               	movlb	0	; () banked
  7322  001A86  51C8               	movf	USBEnableEndpoint@ep& (0+255),w,b
  7323  001A88  EC0A  F00B         	call	_USBConfigureEndpoint
  7324  001A8C                     l282:
  7325                           
  7326                           ;usb_device.c: 894: }
  7327                           ;usb_device.c: 895: if(options & 0x02)
  7328  001A8C  A24A               	btfss	USBEnableEndpoint@options,1,c
  7329  001A8E  D006               	goto	l283
  7330                           
  7331                           ;usb_device.c: 896: {
  7332                           ;usb_device.c: 897: USBConfigureEndpoint(ep, 1);
  7333  001A90  0E01               	movlw	1
  7334  001A92  6E42               	movwf	USBConfigureEndpoint@direction,c
  7335  001A94  0100               	movlb	0	; () banked
  7336  001A96  51C8               	movf	USBEnableEndpoint@ep& (0+255),w,b
  7337  001A98  EC0A  F00B         	call	_USBConfigureEndpoint
  7338  001A9C                     l283:
  7339                           
  7340                           ;usb_device.c: 898: }
  7341                           ;usb_device.c: 906: p = (unsigned char*)(&UEP0+ep);
  7342  001A9C  0100               	movlb	0	; () banked
  7343  001A9E  51C8               	movf	USBEnableEndpoint@ep& (0+255),w,b
  7344  001AA0  0D01               	mullw	1
  7345  001AA2  0E6A               	movlw	106
  7346  001AA4  24F3               	addwf	prodl,w,c
  7347  001AA6  6FC6               	movwf	USBEnableEndpoint@p& (0+255),b
  7348  001AA8  0E0F               	movlw	15
  7349  001AAA  20F4               	addwfc	prodh,w,c
  7350  001AAC  6FC7               	movwf	(USBEnableEndpoint@p+1)& (0+255),b
  7351                           
  7352                           ; BSR set to: 0
  7353                           ;usb_device.c: 908: *p = options;
  7354  001AAE  C0C6  FFD9         	movff	USBEnableEndpoint@p,fsr2l
  7355  001AB2  C0C7  FFDA         	movff	USBEnableEndpoint@p+1,fsr2h
  7356  001AB6  C04A  FFDF         	movff	USBEnableEndpoint@options,indf2
  7357                           
  7358                           ; BSR set to: 0
  7359  001ABA  0012               	return		;funcret
  7360  001ABC                     __end_of_USBEnableEndpoint:
  7361                           	opt stack 0
  7362                           tblptru	equ	0xFF8
  7363                           tblptrh	equ	0xFF7
  7364                           tblptrl	equ	0xFF6
  7365                           tablat	equ	0xFF5
  7366                           prodh	equ	0xFF4
  7367                           prodl	equ	0xFF3
  7368                           indf0	equ	0xFEF
  7369                           postinc0	equ	0xFEE
  7370                           fsr0h	equ	0xFEA
  7371                           fsr0l	equ	0xFE9
  7372                           wreg	equ	0xFE8
  7373                           indf2	equ	0xFDF
  7374                           postinc2	equ	0xFDE
  7375                           postdec2	equ	0xFDD
  7376                           plusw2	equ	0xFDB
  7377                           fsr2h	equ	0xFDA
  7378                           fsr2l	equ	0xFD9
  7379                           status	equ	0xFD8
  7380                           
  7381 ;; *************** function _USBConfigureEndpoint *****************
  7382 ;; Defined at:
  7383 ;;		line 1550 in file "../../../../../../framework/usb/src/usb_device.c"
  7384 ;; Parameters:    Size  Location     Type
  7385 ;;  EPNum           1    wreg     unsigned char 
  7386 ;;  direction       1   18[COMRAM] unsigned char 
  7387 ;; Auto vars:     Size  Location     Type
  7388 ;;  EPNum           1   23[COMRAM] unsigned char 
  7389 ;;  handle          2   24[COMRAM] PTR volatile struct __BD
  7390 ;;		 -> BDT(32), 
  7391 ;; Return value:  Size  Location     Type
  7392 ;;                  1    wreg      void 
  7393 ;; Registers used:
  7394 ;;		wreg, fsr2l, fsr2h, status,2, status,0, prodl, prodh
  7395 ;; Tracked objects:
  7396 ;;		On entry : 0/0
  7397 ;;		On exit  : 0/0
  7398 ;;		Unchanged: 0/0
  7399 ;; Data sizes:     COMRAM   BANK0   BANK1   BANK2   BANK3   BANK4   BANK5   BANK6   BANK7
  7400 ;;      Params:         1       0       0       0       0       0       0       0       0
  7401 ;;      Locals:         3       0       0       0       0       0       0       0       0
  7402 ;;      Temps:          4       0       0       0       0       0       0       0       0
  7403 ;;      Totals:         8       0       0       0       0       0       0       0       0
  7404 ;;Total ram usage:        8 bytes
  7405 ;; Hardware stack levels used:    1
  7406 ;; Hardware stack levels required when called:    1
  7407 ;; This function calls:
  7408 ;;		Nothing
  7409 ;; This function is called by:
  7410 ;;		_USBEnableEndpoint
  7411 ;; This function uses a non-reentrant model
  7412 ;;
  7413                           
  7414                           	psect	text29
  7415  001614                     __ptext29:
  7416                           	opt stack 0
  7417  001614                     _USBConfigureEndpoint:
  7418                           	opt stack 25
  7419                           
  7420                           ; BSR set to: 0
  7421                           ;incstack = 0
  7422                           ;USBConfigureEndpoint@EPNum stored from wreg
  7423  001614  6E47               	movwf	USBConfigureEndpoint@EPNum,c
  7424                           
  7425                           ;usb_device.c: 1552: volatile BDT_ENTRY* handle;
  7426                           ;usb_device.c: 1556: handle = (volatile BDT_ENTRY*)&BDT[0];
  7427  001616  0E00               	movlw	0
  7428  001618  6E48               	movwf	USBConfigureEndpoint@handle,c
  7429  00161A  0E04               	movlw	4
  7430  00161C  6E49               	movwf	USBConfigureEndpoint@handle+1,c
  7431                           
  7432                           ;usb_device.c: 1557: handle += (4*EPNum+2*direction+0u);
  7433  00161E  5042               	movf	USBConfigureEndpoint@direction,w,c
  7434  001620  6E43               	movwf	??_USBConfigureEndpoint& (0+255),c
  7435  001622  6A44               	clrf	(??_USBConfigureEndpoint+1)& (0+255),c
  7436  001624  90D8               	bcf	status,0,c
  7437  001626  3643               	rlcf	??_USBConfigureEndpoint,f,c
  7438  001628  3644               	rlcf	??_USBConfigureEndpoint+1,f,c
  7439  00162A  5047               	movf	USBConfigureEndpoint@EPNum,w,c
  7440  00162C  6E45               	movwf	(??_USBConfigureEndpoint+2)& (0+255),c
  7441  00162E  6A46               	clrf	(??_USBConfigureEndpoint+3)& (0+255),c
  7442  001630  90D8               	bcf	status,0,c
  7443  001632  3645               	rlcf	??_USBConfigureEndpoint+2,f,c
  7444  001634  3646               	rlcf	??_USBConfigureEndpoint+3,f,c
  7445  001636  90D8               	bcf	status,0,c
  7446  001638  3645               	rlcf	??_USBConfigureEndpoint+2,f,c
  7447  00163A  3646               	rlcf	??_USBConfigureEndpoint+3,f,c
  7448  00163C  5043               	movf	??_USBConfigureEndpoint,w,c
  7449  00163E  2645               	addwf	??_USBConfigureEndpoint+2,f,c
  7450  001640  5044               	movf	??_USBConfigureEndpoint+1,w,c
  7451  001642  2246               	addwfc	??_USBConfigureEndpoint+3,f,c
  7452  001644  90D8               	bcf	status,0,c
  7453  001646  3645               	rlcf	??_USBConfigureEndpoint+2,f,c
  7454  001648  3646               	rlcf	??_USBConfigureEndpoint+3,f,c
  7455  00164A  90D8               	bcf	status,0,c
  7456  00164C  3645               	rlcf	??_USBConfigureEndpoint+2,f,c
  7457  00164E  3646               	rlcf	??_USBConfigureEndpoint+3,f,c
  7458  001650  5045               	movf	??_USBConfigureEndpoint+2,w,c
  7459  001652  2648               	addwf	USBConfigureEndpoint@handle,f,c
  7460  001654  5046               	movf	??_USBConfigureEndpoint+3,w,c
  7461  001656  2249               	addwfc	USBConfigureEndpoint@handle+1,f,c
  7462                           
  7463                           ;usb_device.c: 1559: handle->STAT.UOWN = 0;
  7464  001658  C048  FFD9         	movff	USBConfigureEndpoint@handle,fsr2l
  7465  00165C  C049  FFDA         	movff	USBConfigureEndpoint@handle+1,fsr2h
  7466  001660  9EDF               	bcf	indf2,7,c
  7467                           
  7468                           ;usb_device.c: 1564: if(direction == 0)
  7469  001662  5042               	movf	USBConfigureEndpoint@direction,w,c
  7470  001664  A4D8               	btfss	status,2,c
  7471  001666  D007               	goto	l318
  7472                           
  7473                           ;usb_device.c: 1565: {
  7474                           ;usb_device.c: 1566: pBDTEntryOut[EPNum] = handle;
  7475  001668  5047               	movf	USBConfigureEndpoint@EPNum,w,c
  7476  00166A  0D02               	mullw	2
  7477  00166C  0E70               	movlw	low _pBDTEntryOut
  7478  00166E  24F3               	addwf	prodl,w,c
  7479  001670  6ED9               	movwf	fsr2l,c
  7480  001672  0E00               	movlw	high _pBDTEntryOut
  7481  001674  D006               	goto	L11
  7482  001676                     l318:
  7483                           
  7484                           ;usb_device.c: 1568: else
  7485                           ;usb_device.c: 1569: {
  7486                           ;usb_device.c: 1570: pBDTEntryIn[EPNum] = handle;
  7487  001676  5047               	movf	USBConfigureEndpoint@EPNum,w,c
  7488  001678  0D02               	mullw	2
  7489  00167A  0E0F               	movlw	low _pBDTEntryIn
  7490  00167C  24F3               	addwf	prodl,w,c
  7491  00167E  6ED9               	movwf	fsr2l,c
  7492  001680  0E00               	movlw	high _pBDTEntryIn
  7493  001682                     L11:
  7494  001682  20F4               	addwfc	prodh,w,c
  7495  001684  6EDA               	movwf	fsr2h,c
  7496  001686  C048  FFDE         	movff	USBConfigureEndpoint@handle,postinc2
  7497  00168A  C049  FFDD         	movff	USBConfigureEndpoint@handle+1,postdec2
  7498                           
  7499                           ;usb_device.c: 1571: }
  7500                           ;usb_device.c: 1574: handle->STAT.DTS = 0;
  7501  00168E  C048  FFD9         	movff	USBConfigureEndpoint@handle,fsr2l
  7502  001692  C049  FFDA         	movff	USBConfigureEndpoint@handle+1,fsr2h
  7503  001696  9CDF               	bcf	indf2,6,c
  7504                           
  7505                           ;usb_device.c: 1575: (handle+1)->STAT.DTS = 1;
  7506  001698  EE20 F004          	lfsr	2,4
  7507  00169C  5048               	movf	USBConfigureEndpoint@handle,w,c
  7508  00169E  26D9               	addwf	fsr2l,f,c
  7509  0016A0  5049               	movf	USBConfigureEndpoint@handle+1,w,c
  7510  0016A2  22DA               	addwfc	fsr2h,f,c
  7511  0016A4  8CDF               	bsf	indf2,6,c
  7512  0016A6  0012               	return		;funcret
  7513  0016A8                     __end_of_USBConfigureEndpoint:
  7514                           	opt stack 0
  7515                           tblptru	equ	0xFF8
  7516                           tblptrh	equ	0xFF7
  7517                           tblptrl	equ	0xFF6
  7518                           tablat	equ	0xFF5
  7519                           prodh	equ	0xFF4
  7520                           prodl	equ	0xFF3
  7521                           indf0	equ	0xFEF
  7522                           postinc0	equ	0xFEE
  7523                           fsr0h	equ	0xFEA
  7524                           fsr0l	equ	0xFE9
  7525                           wreg	equ	0xFE8
  7526                           indf2	equ	0xFDF
  7527                           postinc2	equ	0xFDE
  7528                           postdec2	equ	0xFDD
  7529                           plusw2	equ	0xFDB
  7530                           fsr2h	equ	0xFDA
  7531                           fsr2l	equ	0xFD9
  7532                           status	equ	0xFD8
  7533                           
  7534 ;; *************** function _USBCtrlTrfOutHandler *****************
  7535 ;; Defined at:
  7536 ;;		line 2545 in file "../../../../../../framework/usb/src/usb_device.c"
  7537 ;; Parameters:    Size  Location     Type
  7538 ;;		None
  7539 ;; Auto vars:     Size  Location     Type
  7540 ;;		None
  7541 ;; Return value:  Size  Location     Type
  7542 ;;                  1    wreg      void 
  7543 ;; Registers used:
  7544 ;;		wreg, fsr1l, fsr1h, fsr2l, fsr2h, status,2, status,0, pclath, tosl, prodl, prodh, cstack
  7545 ;; Tracked objects:
  7546 ;;		On entry : 0/0
  7547 ;;		On exit  : 0/0
  7548 ;;		Unchanged: 0/0
  7549 ;; Data sizes:     COMRAM   BANK0   BANK1   BANK2   BANK3   BANK4   BANK5   BANK6   BANK7
  7550 ;;      Params:         0       0       0       0       0       0       0       0       0
  7551 ;;      Locals:         0       0       0       0       0       0       0       0       0
  7552 ;;      Temps:          0       0       0       0       0       0       0       0       0
  7553 ;;      Totals:         0       0       0       0       0       0       0       0       0
  7554 ;;Total ram usage:        0 bytes
  7555 ;; Hardware stack levels used:    1
  7556 ;; Hardware stack levels required when called:    3
  7557 ;; This function calls:
  7558 ;;		_USBCtrlTrfRxService
  7559 ;; This function is called by:
  7560 ;;		_USBCtrlEPService
  7561 ;; This function uses a non-reentrant model
  7562 ;;
  7563                           
  7564                           	psect	text30
  7565  0018A8                     __ptext30:
  7566                           	opt stack 0
  7567  0018A8                     _USBCtrlTrfOutHandler:
  7568                           	opt stack 25
  7569                           
  7570                           ;usb_device.c: 2547: if(controlTransferState == 2)
  7571                           
  7572                           ;incstack = 0
  7573  0018A8  0E02               	movlw	2
  7574  0018AA  182A               	xorwf	_controlTransferState,w,c
  7575  0018AC  A4D8               	btfss	status,2,c
  7576  0018AE  D003               	goto	l424
  7577                           
  7578                           ;usb_device.c: 2548: {
  7579                           ;usb_device.c: 2549: USBCtrlTrfRxService();
  7580  0018B0  ECA8  F004         	call	_USBCtrlTrfRxService	;wreg free
  7581                           
  7582                           ;usb_device.c: 2550: }
  7583  0018B4  0012               	return	
  7584  0018B6                     l424:
  7585                           
  7586                           ;usb_device.c: 2551: else
  7587                           ;usb_device.c: 2552: {
  7588                           ;usb_device.c: 2555: controlTransferState = 0;
  7589  0018B6  0E00               	movlw	0
  7590  0018B8  6E2A               	movwf	_controlTransferState,c
  7591                           
  7592                           ;usb_device.c: 2562: if(BothEP0OutUOWNsSet == 0)
  7593  0018BA  5026               	movf	_BothEP0OutUOWNsSet,w,c
  7594  0018BC  A4D8               	btfss	status,2,c
  7595  0018BE  D01F               	goto	l426
  7596                           
  7597                           ;usb_device.c: 2563: {
  7598                           ;usb_device.c: 2564: pBDTEntryEP0OutNext->CNT = 8;
  7599  0018C0  EE20 F001          	lfsr	2,1
  7600  0018C4  5017               	movf	_pBDTEntryEP0OutNext,w,c
  7601  0018C6  26D9               	addwf	fsr2l,f,c
  7602  0018C8  5018               	movf	_pBDTEntryEP0OutNext+1,w,c
  7603  0018CA  22DA               	addwfc	fsr2h,f,c
  7604  0018CC  0E08               	movlw	8
  7605  0018CE  6EDF               	movwf	indf2,c
  7606                           
  7607                           ;usb_device.c: 2565: pBDTEntryEP0OutNext->ADR = ((uint16_t)(&SetupPkt));
  7608  0018D0  EE20 F002          	lfsr	2,2
  7609  0018D4  5017               	movf	_pBDTEntryEP0OutNext,w,c
  7610  0018D6  26D9               	addwf	fsr2l,f,c
  7611  0018D8  5018               	movf	_pBDTEntryEP0OutNext+1,w,c
  7612  0018DA  22DA               	addwfc	fsr2h,f,c
  7613  0018DC  0E20               	movlw	32
  7614  0018DE  6EDE               	movwf	postinc2,c
  7615  0018E0  0E04               	movlw	4
  7616  0018E2  6EDD               	movwf	postdec2,c
  7617                           
  7618                           ;usb_device.c: 2566: pBDTEntryEP0OutNext->STAT.Val = 0x00|(0x08 & 0x08)|0x04;
  7619  0018E4  C017  FFD9         	movff	_pBDTEntryEP0OutNext,fsr2l
  7620  0018E8  C018  FFDA         	movff	_pBDTEntryEP0OutNext+1,fsr2h
  7621  0018EC  0E0C               	movlw	12
  7622  0018EE  6EDF               	movwf	indf2,c
  7623                           
  7624                           ;usb_device.c: 2567: pBDTEntryEP0OutNext->STAT.Val |= 0x80;
  7625  0018F0  C017  FFD9         	movff	_pBDTEntryEP0OutNext,fsr2l
  7626  0018F4  C018  FFDA         	movff	_pBDTEntryEP0OutNext+1,fsr2h
  7627  0018F8  0E00               	movlw	0
  7628  0018FA  8EDB               	bsf	plusw2,7,c
  7629                           
  7630                           ;usb_device.c: 2568: }
  7631  0018FC  0012               	return	
  7632  0018FE                     l426:
  7633                           
  7634                           ;usb_device.c: 2569: else
  7635                           ;usb_device.c: 2570: {
  7636                           ;usb_device.c: 2571: BothEP0OutUOWNsSet = 0;
  7637  0018FE  0E00               	movlw	0
  7638  001900  6E26               	movwf	_BothEP0OutUOWNsSet,c
  7639  001902  0012               	return	
  7640  001904                     __end_of_USBCtrlTrfOutHandler:
  7641                           	opt stack 0
  7642                           tblptru	equ	0xFF8
  7643                           tblptrh	equ	0xFF7
  7644                           tblptrl	equ	0xFF6
  7645                           tablat	equ	0xFF5
  7646                           prodh	equ	0xFF4
  7647                           prodl	equ	0xFF3
  7648                           indf0	equ	0xFEF
  7649                           postinc0	equ	0xFEE
  7650                           fsr0h	equ	0xFEA
  7651                           fsr0l	equ	0xFE9
  7652                           wreg	equ	0xFE8
  7653                           indf2	equ	0xFDF
  7654                           postinc2	equ	0xFDE
  7655                           postdec2	equ	0xFDD
  7656                           plusw2	equ	0xFDB
  7657                           fsr2h	equ	0xFDA
  7658                           fsr2l	equ	0xFD9
  7659                           status	equ	0xFD8
  7660                           
  7661 ;; *************** function _USBCtrlTrfRxService *****************
  7662 ;; Defined at:
  7663 ;;		line 1859 in file "../../../../../../framework/usb/src/usb_device.c"
  7664 ;; Parameters:    Size  Location     Type
  7665 ;;		None
  7666 ;; Auto vars:     Size  Location     Type
  7667 ;;  byteToRead      1   19[COMRAM] unsigned char 
  7668 ;;  i               1   18[COMRAM] unsigned char 
  7669 ;; Return value:  Size  Location     Type
  7670 ;;                  1    wreg      void 
  7671 ;; Registers used:
  7672 ;;		wreg, fsr1l, fsr1h, fsr2l, fsr2h, status,2, status,0, pclath, tosl, prodl, prodh, cstack
  7673 ;; Tracked objects:
  7674 ;;		On entry : 0/0
  7675 ;;		On exit  : 0/0
  7676 ;;		Unchanged: 0/0
  7677 ;; Data sizes:     COMRAM   BANK0   BANK1   BANK2   BANK3   BANK4   BANK5   BANK6   BANK7
  7678 ;;      Params:         0       0       0       0       0       0       0       0       0
  7679 ;;      Locals:         2       0       0       0       0       0       0       0       0
  7680 ;;      Temps:          0       0       0       0       0       0       0       0       0
  7681 ;;      Totals:         2       0       0       0       0       0       0       0       0
  7682 ;;Total ram usage:        2 bytes
  7683 ;; Hardware stack levels used:    1
  7684 ;; Hardware stack levels required when called:    2
  7685 ;; This function calls:
  7686 ;;		_USBCtrlEPAllowStatusStage
  7687 ;;		_USBSetDataEffect
  7688 ;;		_USBSetEffect
  7689 ;; This function is called by:
  7690 ;;		_USBCtrlTrfOutHandler
  7691 ;; This function uses a non-reentrant model
  7692 ;;
  7693                           
  7694                           	psect	text31
  7695  000950                     __ptext31:
  7696                           	opt stack 0
  7697  000950                     _USBCtrlTrfRxService:
  7698                           	opt stack 25
  7699                           
  7700                           ;usb_device.c: 1861: uint8_t byteToRead;
  7701                           ;usb_device.c: 1862: uint8_t i;
  7702                           ;usb_device.c: 1866: byteToRead = pBDTEntryEP0OutCurrent->CNT;
  7703                           
  7704                           ;incstack = 0
  7705  000950  EE20 F001          	lfsr	2,1
  7706  000954  5019               	movf	_pBDTEntryEP0OutCurrent,w,c
  7707  000956  26D9               	addwf	fsr2l,f,c
  7708  000958  501A               	movf	_pBDTEntryEP0OutCurrent+1,w,c
  7709  00095A  22DA               	addwfc	fsr2h,f,c
  7710  00095C  50DF               	movf	indf2,w,c
  7711  00095E  6E43               	movwf	USBCtrlTrfRxService@byteToRead,c
  7712                           
  7713                           ;usb_device.c: 1872: if(byteToRead > outPipes[0].wCount.Val)
  7714  000960  5043               	movf	USBCtrlTrfRxService@byteToRead,w,c
  7715  000962  5C05               	subwf	_outPipes+4,w,c
  7716  000964  0E00               	movlw	0
  7717  000966  5806               	subwfb	_outPipes+5,w,c
  7718  000968  A0D8               	btfss	status,0,c
  7719                           
  7720                           ;usb_device.c: 1873: {
  7721                           ;usb_device.c: 1874: byteToRead = outPipes[0].wCount.Val;
  7722  00096A  C005  F043         	movff	_outPipes+4,USBCtrlTrfRxService@byteToRead
  7723                           
  7724                           ;usb_device.c: 1875: }
  7725                           ;usb_device.c: 1877: outPipes[0].wCount.Val -= byteToRead;
  7726  00096E  5043               	movf	USBCtrlTrfRxService@byteToRead,w,c
  7727  000970  5E05               	subwf	_outPipes+4,f,c
  7728  000972  0E00               	movlw	0
  7729  000974  5A06               	subwfb	_outPipes+5,f,c
  7730                           
  7731                           ;usb_device.c: 1881: for(i=0;i<byteToRead;i++)
  7732  000976  0E00               	movlw	0
  7733  000978  6E42               	movwf	USBCtrlTrfRxService@i,c
  7734  00097A  D011               	goto	l352
  7735  00097C                     
  7736                           ;usb_device.c: 1882: {
  7737                           ;usb_device.c: 1883: *outPipes[0].pDst.bRam++ = CtrlTrfData[i];
  7738  00097C  5042               	movf	USBCtrlTrfRxService@i,w,c
  7739  00097E  0D01               	mullw	1
  7740  000980  0E28               	movlw	40
  7741  000982  24F3               	addwf	prodl,w,c
  7742  000984  6ED9               	movwf	fsr2l,c
  7743  000986  0E04               	movlw	4
  7744  000988  20F4               	addwfc	prodh,w,c
  7745  00098A  6EDA               	movwf	fsr2h,c
  7746  00098C  C001  FFE1         	movff	_outPipes,fsr1l
  7747  000990  C002  FFE2         	movff	_outPipes+1,fsr1h
  7748  000994  CFDF FFE7          	movff	indf2,indf1
  7749  000998  4A01               	infsnz	_outPipes,f,c
  7750  00099A  2A02               	incf	_outPipes+1,f,c
  7751  00099C  2A42               	incf	USBCtrlTrfRxService@i,f,c
  7752  00099E                     l352:
  7753  00099E  5043               	movf	USBCtrlTrfRxService@byteToRead,w,c
  7754  0009A0  5C42               	subwf	USBCtrlTrfRxService@i,w,c
  7755  0009A2  A0D8               	btfss	status,0,c
  7756  0009A4  D7EB               	goto	l353
  7757                           
  7758                           ;usb_device.c: 1884: }
  7759                           ;usb_device.c: 1888: if(outPipes[0].wCount.Val > 0)
  7760  0009A6  5005               	movf	_outPipes+4,w,c
  7761  0009A8  1006               	iorwf	_outPipes+5,w,c
  7762  0009AA  B4D8               	btfsc	status,2,c
  7763  0009AC  D032               	goto	l355
  7764                           
  7765                           ;usb_device.c: 1889: {
  7766                           ;usb_device.c: 1890: pBDTEntryEP0OutNext->CNT = 8;
  7767  0009AE  EE20 F001          	lfsr	2,1
  7768  0009B2  5017               	movf	_pBDTEntryEP0OutNext,w,c
  7769  0009B4  26D9               	addwf	fsr2l,f,c
  7770  0009B6  5018               	movf	_pBDTEntryEP0OutNext+1,w,c
  7771  0009B8  22DA               	addwfc	fsr2h,f,c
  7772  0009BA  0E08               	movlw	8
  7773  0009BC  6EDF               	movwf	indf2,c
  7774                           
  7775                           ;usb_device.c: 1891: pBDTEntryEP0OutNext->ADR = ((uint16_t)(&CtrlTrfData));
  7776  0009BE  EE20 F002          	lfsr	2,2
  7777  0009C2  5017               	movf	_pBDTEntryEP0OutNext,w,c
  7778  0009C4  26D9               	addwf	fsr2l,f,c
  7779  0009C6  5018               	movf	_pBDTEntryEP0OutNext+1,w,c
  7780  0009C8  22DA               	addwfc	fsr2h,f,c
  7781  0009CA  0E28               	movlw	40
  7782  0009CC  6EDE               	movwf	postinc2,c
  7783  0009CE  0E04               	movlw	4
  7784  0009D0  6EDD               	movwf	postdec2,c
  7785                           
  7786                           ;usb_device.c: 1892: if(pBDTEntryEP0OutCurrent->STAT.DTS == 0)
  7787  0009D2  C019  FFD9         	movff	_pBDTEntryEP0OutCurrent,fsr2l
  7788  0009D6  C01A  FFDA         	movff	_pBDTEntryEP0OutCurrent+1,fsr2h
  7789  0009DA  BCDF               	btfsc	indf2,6,c
  7790  0009DC  D00D               	goto	l356
  7791                           
  7792                           ;usb_device.c: 1893: {
  7793                           ;usb_device.c: 1894: pBDTEntryEP0OutNext->STAT.Val = 0x40|(0x08 & 0x08);
  7794  0009DE  C017  FFD9         	movff	_pBDTEntryEP0OutNext,fsr2l
  7795  0009E2  C018  FFDA         	movff	_pBDTEntryEP0OutNext+1,fsr2h
  7796  0009E6  0E48               	movlw	72
  7797  0009E8  6EDF               	movwf	indf2,c
  7798                           
  7799                           ;usb_device.c: 1895: pBDTEntryEP0OutNext->STAT.Val |= 0x80;
  7800  0009EA  C017  FFD9         	movff	_pBDTEntryEP0OutNext,fsr2l
  7801  0009EE  C018  FFDA         	movff	_pBDTEntryEP0OutNext+1,fsr2h
  7802  0009F2  0E00               	movlw	0
  7803  0009F4  8EDB               	bsf	plusw2,7,c
  7804                           
  7805                           ;usb_device.c: 1896: }
  7806  0009F6  0012               	return	
  7807  0009F8                     l356:
  7808                           
  7809                           ;usb_device.c: 1897: else
  7810                           ;usb_device.c: 1898: {
  7811                           ;usb_device.c: 1899: pBDTEntryEP0OutNext->STAT.Val = 0x00|(0x08 & 0x08);
  7812  0009F8  C017  FFD9         	movff	_pBDTEntryEP0OutNext,fsr2l
  7813  0009FC  C018  FFDA         	movff	_pBDTEntryEP0OutNext+1,fsr2h
  7814  000A00  0E08               	movlw	8
  7815  000A02  6EDF               	movwf	indf2,c
  7816                           
  7817                           ;usb_device.c: 1900: pBDTEntryEP0OutNext->STAT.Val |= 0x80;
  7818  000A04  C017  FFD9         	movff	_pBDTEntryEP0OutNext,fsr2l
  7819  000A08  C018  FFDA         	movff	_pBDTEntryEP0OutNext+1,fsr2h
  7820  000A0C  0E00               	movlw	0
  7821  000A0E  8EDB               	bsf	plusw2,7,c
  7822                           
  7823                           ;usb_device.c: 1901: }
  7824                           ;usb_device.c: 1902: }
  7825  000A10  0012               	return	
  7826  000A12                     l355:
  7827                           
  7828                           ;usb_device.c: 1903: else
  7829                           ;usb_device.c: 1904: {
  7830                           ;usb_device.c: 1908: pBDTEntryEP0OutNext->CNT = 8;
  7831  000A12  EE20 F001          	lfsr	2,1
  7832  000A16  5017               	movf	_pBDTEntryEP0OutNext,w,c
  7833  000A18  26D9               	addwf	fsr2l,f,c
  7834  000A1A  5018               	movf	_pBDTEntryEP0OutNext+1,w,c
  7835  000A1C  22DA               	addwfc	fsr2h,f,c
  7836  000A1E  0E08               	movlw	8
  7837  000A20  6EDF               	movwf	indf2,c
  7838                           
  7839                           ;usb_device.c: 1909: pBDTEntryEP0OutNext->ADR = ((uint16_t)(&SetupPkt));
  7840  000A22  EE20 F002          	lfsr	2,2
  7841  000A26  5017               	movf	_pBDTEntryEP0OutNext,w,c
  7842  000A28  26D9               	addwf	fsr2l,f,c
  7843  000A2A  5018               	movf	_pBDTEntryEP0OutNext+1,w,c
  7844  000A2C  22DA               	addwfc	fsr2h,f,c
  7845  000A2E  0E20               	movlw	32
  7846  000A30  6EDE               	movwf	postinc2,c
  7847  000A32  0E04               	movlw	4
  7848  000A34  6EDD               	movwf	postdec2,c
  7849                           
  7850                           ;usb_device.c: 1913: pBDTEntryEP0OutNext->STAT.Val = 0x04;
  7851  000A36  C017  FFD9         	movff	_pBDTEntryEP0OutNext,fsr2l
  7852  000A3A  C018  FFDA         	movff	_pBDTEntryEP0OutNext+1,fsr2h
  7853  000A3E  0E04               	movlw	4
  7854  000A40  6EDF               	movwf	indf2,c
  7855                           
  7856                           ;usb_device.c: 1914: pBDTEntryEP0OutNext->STAT.Val |= 0x80;
  7857  000A42  C017  FFD9         	movff	_pBDTEntryEP0OutNext,fsr2l
  7858  000A46  C018  FFDA         	movff	_pBDTEntryEP0OutNext+1,fsr2h
  7859  000A4A  0E00               	movlw	0
  7860  000A4C  8EDB               	bsf	plusw2,7,c
  7861                           
  7862                           ;usb_device.c: 1921: if(outPipes[0].pFunc != (0))
  7863  000A4E  5007               	movf	_outPipes+6,w,c
  7864  000A50  1008               	iorwf	_outPipes+7,w,c
  7865  000A52  B4D8               	btfsc	status,2,c
  7866  000A54  D00E               	goto	u4729
  7867                           
  7868                           ;usb_device.c: 1922: {
  7869                           ;usb_device.c: 1928: outPipes[0].pFunc();
  7870  000A56  EE20  F007         	lfsr	2,_outPipes+6
  7871  000A5A  D801               	call	u4728
  7872  000A5C  D00A               	goto	u4729
  7873  000A5E                     u4728:
  7874  000A5E  0005               	push	
  7875  000A60  6EFA               	movwf	pclath,c
  7876  000A62  50DE               	movf	postinc2,w,c
  7877  000A64  6EFD               	movwf	tosl,c
  7878  000A66  50DE               	movf	postinc2,w,c
  7879  000A68  6EFE               	movwf	tosh,c
  7880  000A6A  50F8               	movf	tblptru,w,c
  7881  000A6C  6EFF               	movwf	tosu,c
  7882  000A6E  50FA               	movf	pclath,w,c
  7883  000A70  0012               	return		;indir
  7884  000A72                     u4729:
  7885                           
  7886                           ;usb_device.c: 1933: }
  7887                           ;usb_device.c: 1934: outPipes[0].info.bits.busy = 0;
  7888  000A72  9E04               	bcf	_outPipes+3,7,c
  7889                           
  7890                           ;usb_device.c: 1948: if(USBDeferStatusStagePacket == 0)
  7891  000A74  5024               	movf	_USBDeferStatusStagePacket,w,c	;volatile
  7892  000A76  A4D8               	btfss	status,2,c
  7893  000A78  0012               	return	
  7894                           
  7895                           ;usb_device.c: 1949: {
  7896                           ;usb_device.c: 1950: USBCtrlEPAllowStatusStage();
  7897  000A7A  EC66  F009         	call	_USBCtrlEPAllowStatusStage	;wreg free
  7898  000A7E  0012               	return	
  7899  000A80                     __end_of_USBCtrlTrfRxService:
  7900                           	opt stack 0
  7901                           tosu	equ	0xFFF
  7902                           tosh	equ	0xFFE
  7903                           tosl	equ	0xFFD
  7904                           pclath	equ	0xFFA
  7905                           tblptru	equ	0xFF8
  7906                           tblptrh	equ	0xFF7
  7907                           tblptrl	equ	0xFF6
  7908                           tablat	equ	0xFF5
  7909                           prodh	equ	0xFF4
  7910                           prodl	equ	0xFF3
  7911                           indf0	equ	0xFEF
  7912                           postinc0	equ	0xFEE
  7913                           fsr0h	equ	0xFEA
  7914                           fsr0l	equ	0xFE9
  7915                           wreg	equ	0xFE8
  7916                           indf1	equ	0xFE7
  7917                           fsr1h	equ	0xFE2
  7918                           fsr1l	equ	0xFE1
  7919                           indf2	equ	0xFDF
  7920                           postinc2	equ	0xFDE
  7921                           postdec2	equ	0xFDD
  7922                           plusw2	equ	0xFDB
  7923                           fsr2h	equ	0xFDA
  7924                           fsr2l	equ	0xFD9
  7925                           status	equ	0xFD8
  7926                           
  7927 ;; *************** function _USBCtrlEPAllowStatusStage *****************
  7928 ;; Defined at:
  7929 ;;		line 1423 in file "../../../../../../framework/usb/src/usb_device.c"
  7930 ;; Parameters:    Size  Location     Type
  7931 ;;		None
  7932 ;; Auto vars:     Size  Location     Type
  7933 ;;		None
  7934 ;; Return value:  Size  Location     Type
  7935 ;;                  1    wreg      void 
  7936 ;; Registers used:
  7937 ;;		wreg, fsr2l, fsr2h, status,2, status,0
  7938 ;; Tracked objects:
  7939 ;;		On entry : 0/0
  7940 ;;		On exit  : 0/0
  7941 ;;		Unchanged: 0/0
  7942 ;; Data sizes:     COMRAM   BANK0   BANK1   BANK2   BANK3   BANK4   BANK5   BANK6   BANK7
  7943 ;;      Params:         0       0       0       0       0       0       0       0       0
  7944 ;;      Locals:         0       0       0       0       0       0       0       0       0
  7945 ;;      Temps:          0       0       0       0       0       0       0       0       0
  7946 ;;      Totals:         0       0       0       0       0       0       0       0       0
  7947 ;;Total ram usage:        0 bytes
  7948 ;; Hardware stack levels used:    1
  7949 ;; Hardware stack levels required when called:    1
  7950 ;; This function calls:
  7951 ;;		Nothing
  7952 ;; This function is called by:
  7953 ;;		_USBDeviceTasks
  7954 ;;		_USBCtrlEPServiceComplete
  7955 ;;		_USBCtrlTrfRxService
  7956 ;; This function uses a non-reentrant model
  7957 ;;
  7958                           
  7959                           	psect	text32
  7960  0012CC                     __ptext32:
  7961                           	opt stack 0
  7962  0012CC                     _USBCtrlEPAllowStatusStage:
  7963                           	opt stack 25
  7964                           
  7965                           ;usb_device.c: 1430: if(USBStatusStageEnabledFlag1 == 0)
  7966                           
  7967                           ;incstack = 0
  7968  0012CC  5023               	movf	_USBStatusStageEnabledFlag1,w,c	;volatile
  7969  0012CE  A4D8               	btfss	status,2,c
  7970  0012D0  0012               	return	
  7971                           
  7972                           ;usb_device.c: 1431: {
  7973                           ;usb_device.c: 1432: USBStatusStageEnabledFlag1 = 1;
  7974  0012D2  0E01               	movlw	1
  7975  0012D4  6E23               	movwf	_USBStatusStageEnabledFlag1,c	;volatile
  7976                           
  7977                           ;usb_device.c: 1433: if(USBStatusStageEnabledFlag2 == 0)
  7978  0012D6  5022               	movf	_USBStatusStageEnabledFlag2,w,c	;volatile
  7979  0012D8  A4D8               	btfss	status,2,c
  7980  0012DA  0012               	return	
  7981                           
  7982                           ;usb_device.c: 1434: {
  7983                           ;usb_device.c: 1435: USBStatusStageEnabledFlag2 = 1;
  7984  0012DC  0E01               	movlw	1
  7985  0012DE  6E22               	movwf	_USBStatusStageEnabledFlag2,c	;volatile
  7986                           
  7987                           ;usb_device.c: 1439: if(controlTransferState == 2)
  7988  0012E0  0E02               	movlw	2
  7989  0012E2  182A               	xorwf	_controlTransferState,w,c
  7990  0012E4  A4D8               	btfss	status,2,c
  7991  0012E6  D015               	goto	l306
  7992                           
  7993                           ;usb_device.c: 1440: {
  7994                           ;usb_device.c: 1441: pBDTEntryIn[0]->CNT = 0;
  7995  0012E8  EE20 F001          	lfsr	2,1
  7996  0012EC  500F               	movf	_pBDTEntryIn,w,c
  7997  0012EE  26D9               	addwf	fsr2l,f,c
  7998  0012F0  5010               	movf	_pBDTEntryIn+1,w,c
  7999  0012F2  22DA               	addwfc	fsr2h,f,c
  8000  0012F4  0E00               	movlw	0
  8001  0012F6  6EDF               	movwf	indf2,c
  8002                           
  8003                           ;usb_device.c: 1442: pBDTEntryIn[0]->STAT.Val = 0x40|(0x08 & 0x08);
  8004  0012F8  C00F  FFD9         	movff	_pBDTEntryIn,fsr2l
  8005  0012FC  C010  FFDA         	movff	_pBDTEntryIn+1,fsr2h
  8006  001300  0E48               	movlw	72
  8007  001302  6EDF               	movwf	indf2,c
  8008                           
  8009                           ;usb_device.c: 1443: pBDTEntryIn[0]->STAT.Val |= 0x80;
  8010  001304  C00F  FFD9         	movff	_pBDTEntryIn,fsr2l
  8011  001308  C010  FFDA         	movff	_pBDTEntryIn+1,fsr2h
  8012  00130C  0E00               	movlw	0
  8013  00130E  8EDB               	bsf	plusw2,7,c
  8014                           
  8015                           ;usb_device.c: 1444: }
  8016  001310  0012               	return	
  8017  001312                     l306:
  8018                           
  8019                           ;usb_device.c: 1445: else if(controlTransferState == 1)
  8020  001312  042A               	decf	_controlTransferState,w,c
  8021  001314  A4D8               	btfss	status,2,c
  8022  001316  0012               	return	
  8023                           
  8024                           ;usb_device.c: 1446: {
  8025                           ;usb_device.c: 1447: BothEP0OutUOWNsSet = 0;
  8026  001318  0E00               	movlw	0
  8027  00131A  6E26               	movwf	_BothEP0OutUOWNsSet,c
  8028                           
  8029                           ;usb_device.c: 1452: pBDTEntryEP0OutCurrent->CNT = 8;
  8030  00131C  EE20 F001          	lfsr	2,1
  8031  001320  5019               	movf	_pBDTEntryEP0OutCurrent,w,c
  8032  001322  26D9               	addwf	fsr2l,f,c
  8033  001324  501A               	movf	_pBDTEntryEP0OutCurrent+1,w,c
  8034  001326  22DA               	addwfc	fsr2h,f,c
  8035  001328  0E08               	movlw	8
  8036  00132A  6EDF               	movwf	indf2,c
  8037                           
  8038                           ;usb_device.c: 1453: pBDTEntryEP0OutCurrent->ADR = ((uint16_t)(&SetupPkt));
  8039  00132C  EE20 F002          	lfsr	2,2
  8040  001330  5019               	movf	_pBDTEntryEP0OutCurrent,w,c
  8041  001332  26D9               	addwf	fsr2l,f,c
  8042  001334  501A               	movf	_pBDTEntryEP0OutCurrent+1,w,c
  8043  001336  22DA               	addwfc	fsr2h,f,c
  8044  001338  0E20               	movlw	32
  8045  00133A  6EDE               	movwf	postinc2,c
  8046  00133C  0E04               	movlw	4
  8047  00133E  6EDD               	movwf	postdec2,c
  8048                           
  8049                           ;usb_device.c: 1454: pBDTEntryEP0OutCurrent->STAT.Val = 0x04;
  8050  001340  C019  FFD9         	movff	_pBDTEntryEP0OutCurrent,fsr2l
  8051  001344  C01A  FFDA         	movff	_pBDTEntryEP0OutCurrent+1,fsr2h
  8052  001348  0E04               	movlw	4
  8053  00134A  6EDF               	movwf	indf2,c
  8054                           
  8055                           ;usb_device.c: 1455: pBDTEntryEP0OutCurrent->STAT.Val |= 0x80;
  8056  00134C  C019  FFD9         	movff	_pBDTEntryEP0OutCurrent,fsr2l
  8057  001350  C01A  FFDA         	movff	_pBDTEntryEP0OutCurrent+1,fsr2h
  8058  001354  0E00               	movlw	0
  8059  001356  8EDB               	bsf	plusw2,7,c
  8060                           
  8061                           ;usb_device.c: 1456: BothEP0OutUOWNsSet = 1;
  8062  001358  0E01               	movlw	1
  8063  00135A  6E26               	movwf	_BothEP0OutUOWNsSet,c
  8064                           
  8065                           ;usb_device.c: 1460: pBDTEntryEP0OutNext->CNT = 8;
  8066  00135C  EE20 F001          	lfsr	2,1
  8067  001360  5017               	movf	_pBDTEntryEP0OutNext,w,c
  8068  001362  26D9               	addwf	fsr2l,f,c
  8069  001364  5018               	movf	_pBDTEntryEP0OutNext+1,w,c
  8070  001366  22DA               	addwfc	fsr2h,f,c
  8071  001368  0E08               	movlw	8
  8072  00136A  6EDF               	movwf	indf2,c
  8073                           
  8074                           ;usb_device.c: 1461: pBDTEntryEP0OutNext->ADR = ((uint16_t)(&SetupPkt));
  8075  00136C  EE20 F002          	lfsr	2,2
  8076  001370  5017               	movf	_pBDTEntryEP0OutNext,w,c
  8077  001372  26D9               	addwf	fsr2l,f,c
  8078  001374  5018               	movf	_pBDTEntryEP0OutNext+1,w,c
  8079  001376  22DA               	addwfc	fsr2h,f,c
  8080  001378  0E20               	movlw	32
  8081  00137A  6EDE               	movwf	postinc2,c
  8082  00137C  0E04               	movlw	4
  8083  00137E  6EDD               	movwf	postdec2,c
  8084                           
  8085                           ;usb_device.c: 1462: pBDTEntryEP0OutNext->STAT.Val = 0x80;
  8086  001380  C017  FFD9         	movff	_pBDTEntryEP0OutNext,fsr2l
  8087  001384  C018  FFDA         	movff	_pBDTEntryEP0OutNext+1,fsr2h
  8088  001388  0E80               	movlw	128
  8089  00138A  6EDF               	movwf	indf2,c
  8090  00138C  0012               	return	
  8091  00138E                     __end_of_USBCtrlEPAllowStatusStage:
  8092                           	opt stack 0
  8093                           tosu	equ	0xFFF
  8094                           tosh	equ	0xFFE
  8095                           tosl	equ	0xFFD
  8096                           pclath	equ	0xFFA
  8097                           tblptru	equ	0xFF8
  8098                           tblptrh	equ	0xFF7
  8099                           tblptrl	equ	0xFF6
  8100                           tablat	equ	0xFF5
  8101                           prodh	equ	0xFF4
  8102                           prodl	equ	0xFF3
  8103                           indf0	equ	0xFEF
  8104                           postinc0	equ	0xFEE
  8105                           fsr0h	equ	0xFEA
  8106                           fsr0l	equ	0xFE9
  8107                           wreg	equ	0xFE8
  8108                           indf1	equ	0xFE7
  8109                           fsr1h	equ	0xFE2
  8110                           fsr1l	equ	0xFE1
  8111                           indf2	equ	0xFDF
  8112                           postinc2	equ	0xFDE
  8113                           postdec2	equ	0xFDD
  8114                           plusw2	equ	0xFDB
  8115                           fsr2h	equ	0xFDA
  8116                           fsr2l	equ	0xFD9
  8117                           status	equ	0xFD8
  8118                           
  8119 ;; *************** function _USBCtrlTrfInHandler *****************
  8120 ;; Defined at:
  8121 ;;		line 2599 in file "../../../../../../framework/usb/src/usb_device.c"
  8122 ;; Parameters:    Size  Location     Type
  8123 ;;		None
  8124 ;; Auto vars:     Size  Location     Type
  8125 ;;  lastDTS         1   19[COMRAM] unsigned char 
  8126 ;; Return value:  Size  Location     Type
  8127 ;;                  1    wreg      void 
  8128 ;; Registers used:
  8129 ;;		wreg, fsr0l, fsr0h, fsr2l, fsr2h, status,2, status,0, pclath, tosl, tblptrl, tblptrh, tblptru, cstack
  8130 ;; Tracked objects:
  8131 ;;		On entry : 0/0
  8132 ;;		On exit  : 0/0
  8133 ;;		Unchanged: 0/0
  8134 ;; Data sizes:     COMRAM   BANK0   BANK1   BANK2   BANK3   BANK4   BANK5   BANK6   BANK7
  8135 ;;      Params:         0       0       0       0       0       0       0       0       0
  8136 ;;      Locals:         1       0       0       0       0       0       0       0       0
  8137 ;;      Temps:          0       0       0       0       0       0       0       0       0
  8138 ;;      Totals:         1       0       0       0       0       0       0       0       0
  8139 ;;Total ram usage:        1 bytes
  8140 ;; Hardware stack levels used:    1
  8141 ;; Hardware stack levels required when called:    2
  8142 ;; This function calls:
  8143 ;;		_USBCtrlTrfTxService
  8144 ;;		_USBSetDataEffect
  8145 ;;		_USBSetEffect
  8146 ;; This function is called by:
  8147 ;;		_USBCtrlEPService
  8148 ;; This function uses a non-reentrant model
  8149 ;;
  8150                           
  8151                           	psect	text33
  8152  000E90                     __ptext33:
  8153                           	opt stack 0
  8154  000E90                     _USBCtrlTrfInHandler:
  8155                           	opt stack 26
  8156                           
  8157                           ;usb_device.c: 2601: uint8_t lastDTS;
  8158                           ;usb_device.c: 2603: lastDTS = pBDTEntryIn[0]->STAT.DTS;
  8159                           
  8160                           ;incstack = 0
  8161  000E90  C00F  FFD9         	movff	_pBDTEntryIn,fsr2l
  8162  000E94  C010  FFDA         	movff	_pBDTEntryIn+1,fsr2h
  8163  000E98  0E00               	movlw	0
  8164  000E9A  BCDF               	btfsc	indf2,6,c
  8165  000E9C  0E01               	movlw	1
  8166  000E9E  6E43               	movwf	USBCtrlTrfInHandler@lastDTS,c
  8167                           
  8168                           ;usb_device.c: 2606: pBDTEntryIn[0] = (volatile BDT_ENTRY*)(((uintptr_t)pBDTEntryIn[0]) 
      +                          ^ 0x0004);
  8169  000EA0  0E04               	movlw	4
  8170  000EA2  180F               	xorwf	_pBDTEntryIn,w,c
  8171  000EA4  6E0F               	movwf	_pBDTEntryIn,c
  8172  000EA6  5010               	movf	_pBDTEntryIn+1,w,c
  8173  000EA8  6E10               	movwf	_pBDTEntryIn+1,c
  8174                           
  8175                           ;usb_device.c: 2611: if(USBDeviceState == ADR_PENDING_STATE)
  8176  000EAA  0E08               	movlw	8
  8177  000EAC  182C               	xorwf	_USBDeviceState,w,c
  8178  000EAE  A4D8               	btfss	status,2,c
  8179  000EB0  D00B               	goto	l433
  8180                           
  8181                           ;usb_device.c: 2612: {
  8182                           ;usb_device.c: 2613: UADDR = (SetupPkt.bDevADR & 0x7F);
  8183  000EB2  0104               	movlb	4	; () banked
  8184  000EB4  5122               	movf	34,w,b	;volatile
  8185  000EB6  0B7F               	andlw	127
  8186  000EB8  6E63               	movwf	3939,c	;volatile
  8187                           
  8188                           ; BSR set to: 4
  8189                           ;usb_device.c: 2614: if(UADDR != 0u)
  8190  000EBA  5063               	movf	3939,w,c	;volatile
  8191  000EBC  B4D8               	btfsc	status,2,c
  8192  000EBE  D002               	goto	l432
  8193                           
  8194                           ; BSR set to: 4
  8195                           ;usb_device.c: 2615: {
  8196                           ;usb_device.c: 2616: USBDeviceState=ADDRESS_STATE;
  8197  000EC0  0E10               	movlw	16
  8198  000EC2  D001               	goto	L12
  8199  000EC4                     l432:
  8200                           
  8201                           ; BSR set to: 4
  8202                           ;usb_device.c: 2618: else
  8203                           ;usb_device.c: 2619: {
  8204                           ;usb_device.c: 2620: USBDeviceState=DEFAULT_STATE;
  8205                           
  8206                           ; BSR set to: 4
  8207  000EC4  0E04               	movlw	4
  8208  000EC6                     L12:
  8209  000EC6  6E2C               	movwf	_USBDeviceState,c
  8210  000EC8                     l433:
  8211                           
  8212                           ;usb_device.c: 2621: }
  8213                           ;usb_device.c: 2622: }
  8214                           ;usb_device.c: 2625: if(controlTransferState == 1)
  8215                           
  8216                           ; BSR set to: 4
  8217                           
  8218                           ; BSR set to: 4
  8219  000EC8  042A               	decf	_controlTransferState,w,c
  8220  000ECA  A4D8               	btfss	status,2,c
  8221  000ECC  D03A               	goto	l434
  8222                           
  8223                           ;usb_device.c: 2626: {
  8224                           ;usb_device.c: 2627: pBDTEntryIn[0]->ADR = ((uint16_t)(CtrlTrfData));
  8225  000ECE  EE20 F002          	lfsr	2,2
  8226  000ED2  500F               	movf	_pBDTEntryIn,w,c
  8227  000ED4  26D9               	addwf	fsr2l,f,c
  8228  000ED6  5010               	movf	_pBDTEntryIn+1,w,c
  8229  000ED8  22DA               	addwfc	fsr2h,f,c
  8230  000EDA  0E28               	movlw	40
  8231  000EDC  6EDE               	movwf	postinc2,c
  8232  000EDE  0E04               	movlw	4
  8233  000EE0  6EDD               	movwf	postdec2,c
  8234                           
  8235                           ;usb_device.c: 2628: USBCtrlTrfTxService();
  8236  000EE2  EC00  F009         	call	_USBCtrlTrfTxService	;wreg free
  8237                           
  8238                           ;usb_device.c: 2634: if(shortPacketStatus == 2)
  8239  000EE6  0E02               	movlw	2
  8240  000EE8  182B               	xorwf	_shortPacketStatus,w,c
  8241  000EEA  A4D8               	btfss	status,2,c
  8242  000EEC  D00D               	goto	l435
  8243                           
  8244                           ;usb_device.c: 2635: {
  8245                           ;usb_device.c: 2638: pBDTEntryIn[0]->STAT.Val = 0x04;
  8246  000EEE  C00F  FFD9         	movff	_pBDTEntryIn,fsr2l
  8247  000EF2  C010  FFDA         	movff	_pBDTEntryIn+1,fsr2h
  8248  000EF6  0E04               	movlw	4
  8249  000EF8  6EDF               	movwf	indf2,c
  8250                           
  8251                           ;usb_device.c: 2639: pBDTEntryIn[0]->STAT.Val |= 0x80;
  8252  000EFA  C00F  FFD9         	movff	_pBDTEntryIn,fsr2l
  8253  000EFE  C010  FFDA         	movff	_pBDTEntryIn+1,fsr2h
  8254  000F02  0E00               	movlw	0
  8255  000F04  8EDB               	bsf	plusw2,7,c
  8256                           
  8257                           ;usb_device.c: 2640: }
  8258  000F06  0012               	return	
  8259  000F08                     l435:
  8260                           
  8261                           ;usb_device.c: 2641: else
  8262                           ;usb_device.c: 2642: {
  8263                           ;usb_device.c: 2643: if(lastDTS == 0)
  8264  000F08  5043               	movf	USBCtrlTrfInHandler@lastDTS,w,c
  8265  000F0A  A4D8               	btfss	status,2,c
  8266  000F0C  D00D               	goto	l437
  8267                           
  8268                           ;usb_device.c: 2644: {
  8269                           ;usb_device.c: 2645: pBDTEntryIn[0]->STAT.Val = 0x40|(0x08 & 0x08);
  8270  000F0E  C00F  FFD9         	movff	_pBDTEntryIn,fsr2l
  8271  000F12  C010  FFDA         	movff	_pBDTEntryIn+1,fsr2h
  8272  000F16  0E48               	movlw	72
  8273  000F18  6EDF               	movwf	indf2,c
  8274                           
  8275                           ;usb_device.c: 2646: pBDTEntryIn[0]->STAT.Val |= 0x80;
  8276  000F1A  C00F  FFD9         	movff	_pBDTEntryIn,fsr2l
  8277  000F1E  C010  FFDA         	movff	_pBDTEntryIn+1,fsr2h
  8278  000F22  0E00               	movlw	0
  8279  000F24  8EDB               	bsf	plusw2,7,c
  8280                           
  8281                           ;usb_device.c: 2647: }
  8282  000F26  0012               	return	
  8283  000F28                     l437:
  8284                           
  8285                           ;usb_device.c: 2648: else
  8286                           ;usb_device.c: 2649: {
  8287                           ;usb_device.c: 2650: pBDTEntryIn[0]->STAT.Val = 0x00|(0x08 & 0x08);
  8288  000F28  C00F  FFD9         	movff	_pBDTEntryIn,fsr2l
  8289  000F2C  C010  FFDA         	movff	_pBDTEntryIn+1,fsr2h
  8290  000F30  0E08               	movlw	8
  8291  000F32  6EDF               	movwf	indf2,c
  8292                           
  8293                           ;usb_device.c: 2651: pBDTEntryIn[0]->STAT.Val |= 0x80;
  8294  000F34  C00F  FFD9         	movff	_pBDTEntryIn,fsr2l
  8295  000F38  C010  FFDA         	movff	_pBDTEntryIn+1,fsr2h
  8296  000F3C  0E00               	movlw	0
  8297  000F3E  8EDB               	bsf	plusw2,7,c
  8298                           
  8299                           ;usb_device.c: 2652: }
  8300                           ;usb_device.c: 2653: }
  8301                           ;usb_device.c: 2654: }
  8302  000F40  0012               	return	
  8303  000F42                     l434:
  8304                           
  8305                           ;usb_device.c: 2655: else
  8306                           ;usb_device.c: 2656: {
  8307                           ;usb_device.c: 2660: if(outPipes[0].info.bits.busy == 1)
  8308  000F42  AE04               	btfss	_outPipes+3,7,c
  8309  000F44  D013               	goto	l440
  8310                           
  8311                           ;usb_device.c: 2661: {
  8312                           ;usb_device.c: 2662: if(outPipes[0].pFunc != (0))
  8313  000F46  5007               	movf	_outPipes+6,w,c
  8314  000F48  1008               	iorwf	_outPipes+7,w,c
  8315  000F4A  B4D8               	btfsc	status,2,c
  8316  000F4C  D00E               	goto	u4859
  8317                           
  8318                           ;usb_device.c: 2663: {
  8319                           ;usb_device.c: 2664: outPipes[0].pFunc();
  8320  000F4E  EE20  F007         	lfsr	2,_outPipes+6
  8321  000F52  D801               	call	u4858
  8322  000F54  D00A               	goto	u4859
  8323  000F56                     u4858:
  8324  000F56  0005               	push	
  8325  000F58  6EFA               	movwf	pclath,c
  8326  000F5A  50DE               	movf	postinc2,w,c
  8327  000F5C  6EFD               	movwf	tosl,c
  8328  000F5E  50DE               	movf	postinc2,w,c
  8329  000F60  6EFE               	movwf	tosh,c
  8330  000F62  50F8               	movf	tblptru,w,c
  8331  000F64  6EFF               	movwf	tosu,c
  8332  000F66  50FA               	movf	pclath,w,c
  8333  000F68  0012               	return		;indir
  8334  000F6A                     u4859:
  8335                           
  8336                           ;usb_device.c: 2665: }
  8337                           ;usb_device.c: 2666: outPipes[0].info.bits.busy = 0;
  8338  000F6A  9E04               	bcf	_outPipes+3,7,c
  8339  000F6C                     l440:
  8340                           
  8341                           ;usb_device.c: 2667: }
  8342                           ;usb_device.c: 2669: controlTransferState = 0;
  8343  000F6C  0E00               	movlw	0
  8344  000F6E  6E2A               	movwf	_controlTransferState,c
  8345  000F70  0012               	return	
  8346  000F72                     __end_of_USBCtrlTrfInHandler:
  8347                           	opt stack 0
  8348                           tosu	equ	0xFFF
  8349                           tosh	equ	0xFFE
  8350                           tosl	equ	0xFFD
  8351                           pclath	equ	0xFFA
  8352                           tblptru	equ	0xFF8
  8353                           tblptrh	equ	0xFF7
  8354                           tblptrl	equ	0xFF6
  8355                           tablat	equ	0xFF5
  8356                           prodh	equ	0xFF4
  8357                           prodl	equ	0xFF3
  8358                           indf0	equ	0xFEF
  8359                           postinc0	equ	0xFEE
  8360                           fsr0h	equ	0xFEA
  8361                           fsr0l	equ	0xFE9
  8362                           wreg	equ	0xFE8
  8363                           indf1	equ	0xFE7
  8364                           fsr1h	equ	0xFE2
  8365                           fsr1l	equ	0xFE1
  8366                           indf2	equ	0xFDF
  8367                           postinc2	equ	0xFDE
  8368                           postdec2	equ	0xFDD
  8369                           plusw2	equ	0xFDB
  8370                           fsr2h	equ	0xFDA
  8371                           fsr2l	equ	0xFD9
  8372                           status	equ	0xFD8
  8373                           
  8374 ;; *************** function _USBSetDataEffect *****************
  8375 ;; Defined at:
  8376 ;;		line 667 in file "../demo_src/app_device_joystick.c"
  8377 ;; Parameters:    Size  Location     Type
  8378 ;;		None
  8379 ;; Auto vars:     Size  Location     Type
  8380 ;;		None
  8381 ;; Return value:  Size  Location     Type
  8382 ;;                  1    wreg      void 
  8383 ;; Registers used:
  8384 ;;		None
  8385 ;; Tracked objects:
  8386 ;;		On entry : 0/0
  8387 ;;		On exit  : 0/0
  8388 ;;		Unchanged: 0/0
  8389 ;; Data sizes:     COMRAM   BANK0   BANK1   BANK2   BANK3   BANK4   BANK5   BANK6   BANK7
  8390 ;;      Params:         0       0       0       0       0       0       0       0       0
  8391 ;;      Locals:         0       0       0       0       0       0       0       0       0
  8392 ;;      Temps:          0       0       0       0       0       0       0       0       0
  8393 ;;      Totals:         0       0       0       0       0       0       0       0       0
  8394 ;;Total ram usage:        0 bytes
  8395 ;; Hardware stack levels used:    1
  8396 ;; Hardware stack levels required when called:    1
  8397 ;; This function calls:
  8398 ;;		Nothing
  8399 ;; This function is called by:
  8400 ;;		_USER_SET_REPORT_HANDLER
  8401 ;;		_USBCtrlTrfRxService
  8402 ;;		_USBCtrlTrfInHandler
  8403 ;; This function uses a non-reentrant model
  8404 ;;
  8405                           
  8406                           	psect	text34
  8407  001C8C                     __ptext34:
  8408                           	opt stack 0
  8409  001C8C                     _USBSetDataEffect:
  8410                           	opt stack 25
  8411                           
  8412                           ;incstack = 0
  8413  001C8C  0012               	return		;funcret
  8414  001C8E                     __end_of_USBSetDataEffect:
  8415                           	opt stack 0
  8416                           tosu	equ	0xFFF
  8417                           tosh	equ	0xFFE
  8418                           tosl	equ	0xFFD
  8419                           pclath	equ	0xFFA
  8420                           tblptru	equ	0xFF8
  8421                           tblptrh	equ	0xFF7
  8422                           tblptrl	equ	0xFF6
  8423                           tablat	equ	0xFF5
  8424                           prodh	equ	0xFF4
  8425                           prodl	equ	0xFF3
  8426                           indf0	equ	0xFEF
  8427                           postinc0	equ	0xFEE
  8428                           fsr0h	equ	0xFEA
  8429                           fsr0l	equ	0xFE9
  8430                           wreg	equ	0xFE8
  8431                           indf1	equ	0xFE7
  8432                           fsr1h	equ	0xFE2
  8433                           fsr1l	equ	0xFE1
  8434                           indf2	equ	0xFDF
  8435                           postinc2	equ	0xFDE
  8436                           postdec2	equ	0xFDD
  8437                           plusw2	equ	0xFDB
  8438                           fsr2h	equ	0xFDA
  8439                           fsr2l	equ	0xFD9
  8440                           status	equ	0xFD8
  8441                           
  8442 ;; *************** function _USBSetEffect *****************
  8443 ;; Defined at:
  8444 ;;		line 506 in file "../demo_src/app_device_joystick.c"
  8445 ;; Parameters:    Size  Location     Type
  8446 ;;		None
  8447 ;; Auto vars:     Size  Location     Type
  8448 ;;		None
  8449 ;; Return value:  Size  Location     Type
  8450 ;;                  1    wreg      void 
  8451 ;; Registers used:
  8452 ;;		wreg, status,2, status,0
  8453 ;; Tracked objects:
  8454 ;;		On entry : 0/0
  8455 ;;		On exit  : 0/0
  8456 ;;		Unchanged: 0/0
  8457 ;; Data sizes:     COMRAM   BANK0   BANK1   BANK2   BANK3   BANK4   BANK5   BANK6   BANK7
  8458 ;;      Params:         0       0       0       0       0       0       0       0       0
  8459 ;;      Locals:         0       0       0       0       0       0       0       0       0
  8460 ;;      Temps:          0       0       0       0       0       0       0       0       0
  8461 ;;      Totals:         0       0       0       0       0       0       0       0       0
  8462 ;;Total ram usage:        0 bytes
  8463 ;; Hardware stack levels used:    1
  8464 ;; Hardware stack levels required when called:    1
  8465 ;; This function calls:
  8466 ;;		Nothing
  8467 ;; This function is called by:
  8468 ;;		_USER_SET_REPORT_HANDLER
  8469 ;;		_USBCtrlTrfRxService
  8470 ;;		_USBCtrlTrfInHandler
  8471 ;; This function uses a non-reentrant model
  8472 ;;
  8473                           
  8474                           	psect	text35
  8475  00054E                     __ptext35:
  8476                           	opt stack 0
  8477  00054E                     _USBSetEffect:
  8478                           	opt stack 25
  8479                           
  8480                           ;app_device_joystick.c: 508: set_get_effect_structure.SET_REPORT_REQUEST.report_id=hid_r
      +                          eport_out[0];
  8481                           
  8482                           ;incstack = 0
  8483  00054E  C07C  F0BC         	movff	_hid_report_out,_set_get_effect_structure	;volatile
  8484                           
  8485                           ;app_device_joystick.c: 509: set_get_effect_structure.SET_REPORT_REQUEST.effect_type=hid
      +                          _report_out[1];
  8486  000552  C07D  F0BD         	movff	_hid_report_out+1,_set_get_effect_structure+1	;volatile
  8487                           
  8488                           ;app_device_joystick.c: 510: set_get_effect_structure.SET_REPORT_REQUEST.byte_count=hid_
      +                          report_out[2];
  8489  000556  C07E  F0BE         	movff	_hid_report_out+2,_set_get_effect_structure+2	;volatile
  8490                           
  8491                           ;app_device_joystick.c: 524: switch(set_get_effect_structure.SET_REPORT_REQUEST.effect_t
      +                          ype)
  8492  00055A  D087               	goto	l780
  8493  00055C                     
  8494                           ;app_device_joystick.c: 527: set_get_effect_structure.PID_BLOCK_LOAD_REPORT.report_id=2;
  8495  00055C  0E02               	movlw	2
  8496  00055E  0100               	movlb	0	; () banked
  8497  000560  6FBC               	movwf	_set_get_effect_structure& (0+255),b
  8498                           
  8499                           ;app_device_joystick.c: 528: set_get_effect_structure.PID_BLOCK_LOAD_REPORT.effect_block
      +                          _index=1;
  8500  000562  0E01               	movlw	1
  8501  000564  6FBD               	movwf	(_set_get_effect_structure+1)& (0+255),b
  8502                           
  8503                           ;app_device_joystick.c: 529: set_get_effect_structure.PID_BLOCK_LOAD_REPORT.block_load_s
      +                          tatus=1;
  8504  000566  0E01               	movlw	1
  8505  000568  6FBE               	movwf	(_set_get_effect_structure+2)& (0+255),b
  8506                           
  8507                           ; BSR set to: 0
  8508                           ;app_device_joystick.c: 530: set_get_effect_structure.PID_BLOCK_LOAD_REPORT.ram_pool_ava
      +                          ilable=0xFFFF;
  8509  00056A  69BF               	setf	(_set_get_effect_structure+3)& (0+255),b
  8510  00056C  69C0               	setf	(_set_get_effect_structure+4)& (0+255),b
  8511                           
  8512                           ;app_device_joystick.c: 532: CONFIGURED_EFFECT_NUMBER[0]=1;
  8513  00056E  0E01               	movlw	1
  8514  000570  6F60               	movwf	_CONFIGURED_EFFECT_NUMBER& (0+255),b
  8515                           
  8516                           ;app_device_joystick.c: 535: break;
  8517  000572  0012               	return	
  8518  000574                     
  8519                           ; BSR set to: 0
  8520                           ;app_device_joystick.c: 537: set_get_effect_structure.PID_BLOCK_LOAD_REPORT.report_id=2;
  8521                           
  8522                           ; BSR set to: 0
  8523  000574  0E02               	movlw	2
  8524  000576  6FBC               	movwf	_set_get_effect_structure& (0+255),b
  8525                           
  8526                           ;app_device_joystick.c: 538: set_get_effect_structure.PID_BLOCK_LOAD_REPORT.effect_block
      +                          _index=2;
  8527  000578  0E02               	movlw	2
  8528  00057A  6FBD               	movwf	(_set_get_effect_structure+1)& (0+255),b
  8529                           
  8530                           ;app_device_joystick.c: 539: set_get_effect_structure.PID_BLOCK_LOAD_REPORT.block_load_s
      +                          tatus=1;
  8531  00057C  0E01               	movlw	1
  8532  00057E  6FBE               	movwf	(_set_get_effect_structure+2)& (0+255),b
  8533                           
  8534                           ; BSR set to: 0
  8535                           ;app_device_joystick.c: 540: set_get_effect_structure.PID_BLOCK_LOAD_REPORT.ram_pool_ava
      +                          ilable=0xFFFF;
  8536  000580  69BF               	setf	(_set_get_effect_structure+3)& (0+255),b
  8537  000582  69C0               	setf	(_set_get_effect_structure+4)& (0+255),b
  8538                           
  8539                           ;app_device_joystick.c: 542: CONFIGURED_EFFECT_NUMBER[1]=1;
  8540  000584  0E01               	movlw	1
  8541  000586  6F61               	movwf	(_CONFIGURED_EFFECT_NUMBER+1)& (0+255),b
  8542                           
  8543                           ;app_device_joystick.c: 544: break;
  8544  000588  0012               	return	
  8545  00058A                     
  8546                           ; BSR set to: 0
  8547                           ;app_device_joystick.c: 546: set_get_effect_structure.PID_BLOCK_LOAD_REPORT.report_id=2;
  8548                           
  8549                           ; BSR set to: 0
  8550  00058A  0E02               	movlw	2
  8551  00058C  6FBC               	movwf	_set_get_effect_structure& (0+255),b
  8552                           
  8553                           ;app_device_joystick.c: 547: set_get_effect_structure.PID_BLOCK_LOAD_REPORT.effect_block
      +                          _index=3;
  8554  00058E  0E03               	movlw	3
  8555  000590  6FBD               	movwf	(_set_get_effect_structure+1)& (0+255),b
  8556                           
  8557                           ;app_device_joystick.c: 548: set_get_effect_structure.PID_BLOCK_LOAD_REPORT.block_load_s
      +                          tatus=1;
  8558  000592  0E01               	movlw	1
  8559  000594  6FBE               	movwf	(_set_get_effect_structure+2)& (0+255),b
  8560                           
  8561                           ; BSR set to: 0
  8562                           ;app_device_joystick.c: 549: set_get_effect_structure.PID_BLOCK_LOAD_REPORT.ram_pool_ava
      +                          ilable=0xFFFF;
  8563  000596  69BF               	setf	(_set_get_effect_structure+3)& (0+255),b
  8564  000598  69C0               	setf	(_set_get_effect_structure+4)& (0+255),b
  8565                           
  8566                           ;app_device_joystick.c: 551: CONFIGURED_EFFECT_NUMBER[2]=1;
  8567  00059A  0E01               	movlw	1
  8568  00059C  6F62               	movwf	(_CONFIGURED_EFFECT_NUMBER+2)& (0+255),b
  8569                           
  8570                           ;app_device_joystick.c: 553: break;
  8571  00059E  0012               	return	
  8572  0005A0                     
  8573                           ; BSR set to: 0
  8574                           ;app_device_joystick.c: 555: set_get_effect_structure.PID_BLOCK_LOAD_REPORT.report_id=2;
  8575                           
  8576                           ; BSR set to: 0
  8577  0005A0  0E02               	movlw	2
  8578  0005A2  6FBC               	movwf	_set_get_effect_structure& (0+255),b
  8579                           
  8580                           ;app_device_joystick.c: 556: set_get_effect_structure.PID_BLOCK_LOAD_REPORT.effect_block
      +                          _index=4;
  8581  0005A4  0E04               	movlw	4
  8582  0005A6  6FBD               	movwf	(_set_get_effect_structure+1)& (0+255),b
  8583                           
  8584                           ;app_device_joystick.c: 557: set_get_effect_structure.PID_BLOCK_LOAD_REPORT.block_load_s
      +                          tatus=1;
  8585  0005A8  0E01               	movlw	1
  8586  0005AA  6FBE               	movwf	(_set_get_effect_structure+2)& (0+255),b
  8587                           
  8588                           ; BSR set to: 0
  8589                           ;app_device_joystick.c: 558: set_get_effect_structure.PID_BLOCK_LOAD_REPORT.ram_pool_ava
      +                          ilable=0xFFFF;
  8590  0005AC  69BF               	setf	(_set_get_effect_structure+3)& (0+255),b
  8591  0005AE  69C0               	setf	(_set_get_effect_structure+4)& (0+255),b
  8592                           
  8593                           ;app_device_joystick.c: 560: CONFIGURED_EFFECT_NUMBER[3]=1;
  8594  0005B0  0E01               	movlw	1
  8595  0005B2  6F63               	movwf	(_CONFIGURED_EFFECT_NUMBER+3)& (0+255),b
  8596                           
  8597                           ;app_device_joystick.c: 562: break;
  8598  0005B4  0012               	return	
  8599  0005B6                     
  8600                           ; BSR set to: 0
  8601                           ;app_device_joystick.c: 564: set_get_effect_structure.PID_BLOCK_LOAD_REPORT.report_id=2;
  8602                           
  8603                           ; BSR set to: 0
  8604  0005B6  0E02               	movlw	2
  8605  0005B8  6FBC               	movwf	_set_get_effect_structure& (0+255),b
  8606                           
  8607                           ;app_device_joystick.c: 565: set_get_effect_structure.PID_BLOCK_LOAD_REPORT.effect_block
      +                          _index=5;
  8608  0005BA  0E05               	movlw	5
  8609  0005BC  6FBD               	movwf	(_set_get_effect_structure+1)& (0+255),b
  8610                           
  8611                           ;app_device_joystick.c: 566: set_get_effect_structure.PID_BLOCK_LOAD_REPORT.block_load_s
      +                          tatus=1;
  8612  0005BE  0E01               	movlw	1
  8613  0005C0  6FBE               	movwf	(_set_get_effect_structure+2)& (0+255),b
  8614                           
  8615                           ; BSR set to: 0
  8616                           ;app_device_joystick.c: 567: set_get_effect_structure.PID_BLOCK_LOAD_REPORT.ram_pool_ava
      +                          ilable=0xFFFF;
  8617  0005C2  69BF               	setf	(_set_get_effect_structure+3)& (0+255),b
  8618  0005C4  69C0               	setf	(_set_get_effect_structure+4)& (0+255),b
  8619                           
  8620                           ;app_device_joystick.c: 569: CONFIGURED_EFFECT_NUMBER[4]=1;
  8621  0005C6  0E01               	movlw	1
  8622  0005C8  6F64               	movwf	(_CONFIGURED_EFFECT_NUMBER+4)& (0+255),b
  8623                           
  8624                           ;app_device_joystick.c: 571: break;
  8625  0005CA  0012               	return	
  8626  0005CC                     
  8627                           ; BSR set to: 0
  8628                           ;app_device_joystick.c: 573: set_get_effect_structure.PID_BLOCK_LOAD_REPORT.report_id=2;
  8629                           
  8630                           ; BSR set to: 0
  8631  0005CC  0E02               	movlw	2
  8632  0005CE  6FBC               	movwf	_set_get_effect_structure& (0+255),b
  8633                           
  8634                           ;app_device_joystick.c: 574: set_get_effect_structure.PID_BLOCK_LOAD_REPORT.effect_block
      +                          _index=6;
  8635  0005D0  0E06               	movlw	6
  8636  0005D2  6FBD               	movwf	(_set_get_effect_structure+1)& (0+255),b
  8637                           
  8638                           ;app_device_joystick.c: 575: set_get_effect_structure.PID_BLOCK_LOAD_REPORT.block_load_s
      +                          tatus=1;
  8639  0005D4  0E01               	movlw	1
  8640  0005D6  6FBE               	movwf	(_set_get_effect_structure+2)& (0+255),b
  8641                           
  8642                           ; BSR set to: 0
  8643                           ;app_device_joystick.c: 576: set_get_effect_structure.PID_BLOCK_LOAD_REPORT.ram_pool_ava
      +                          ilable=0xFFFF;
  8644  0005D8  69BF               	setf	(_set_get_effect_structure+3)& (0+255),b
  8645  0005DA  69C0               	setf	(_set_get_effect_structure+4)& (0+255),b
  8646                           
  8647                           ;app_device_joystick.c: 578: CONFIGURED_EFFECT_NUMBER[5]=1;
  8648  0005DC  0E01               	movlw	1
  8649  0005DE  6F65               	movwf	(_CONFIGURED_EFFECT_NUMBER+5)& (0+255),b
  8650                           
  8651                           ;app_device_joystick.c: 580: break;
  8652  0005E0  0012               	return	
  8653  0005E2                     
  8654                           ; BSR set to: 0
  8655                           ;app_device_joystick.c: 582: set_get_effect_structure.PID_BLOCK_LOAD_REPORT.report_id=2;
  8656                           
  8657                           ; BSR set to: 0
  8658  0005E2  0E02               	movlw	2
  8659  0005E4  6FBC               	movwf	_set_get_effect_structure& (0+255),b
  8660                           
  8661                           ;app_device_joystick.c: 583: set_get_effect_structure.PID_BLOCK_LOAD_REPORT.effect_block
      +                          _index=7;
  8662  0005E6  0E07               	movlw	7
  8663  0005E8  6FBD               	movwf	(_set_get_effect_structure+1)& (0+255),b
  8664                           
  8665                           ;app_device_joystick.c: 584: set_get_effect_structure.PID_BLOCK_LOAD_REPORT.block_load_s
      +                          tatus=1;
  8666  0005EA  0E01               	movlw	1
  8667  0005EC  6FBE               	movwf	(_set_get_effect_structure+2)& (0+255),b
  8668                           
  8669                           ; BSR set to: 0
  8670                           ;app_device_joystick.c: 585: set_get_effect_structure.PID_BLOCK_LOAD_REPORT.ram_pool_ava
      +                          ilable=0xFFFF;
  8671  0005EE  69BF               	setf	(_set_get_effect_structure+3)& (0+255),b
  8672  0005F0  69C0               	setf	(_set_get_effect_structure+4)& (0+255),b
  8673                           
  8674                           ;app_device_joystick.c: 587: CONFIGURED_EFFECT_NUMBER[6]=1;
  8675  0005F2  0E01               	movlw	1
  8676  0005F4  6F66               	movwf	(_CONFIGURED_EFFECT_NUMBER+6)& (0+255),b
  8677                           
  8678                           ;app_device_joystick.c: 589: break;
  8679  0005F6  0012               	return	
  8680  0005F8                     
  8681                           ; BSR set to: 0
  8682                           ;app_device_joystick.c: 591: set_get_effect_structure.PID_BLOCK_LOAD_REPORT.report_id=2;
  8683                           
  8684                           ; BSR set to: 0
  8685  0005F8  0E02               	movlw	2
  8686  0005FA  6FBC               	movwf	_set_get_effect_structure& (0+255),b
  8687                           
  8688                           ;app_device_joystick.c: 592: set_get_effect_structure.PID_BLOCK_LOAD_REPORT.effect_block
      +                          _index=8;
  8689  0005FC  0E08               	movlw	8
  8690  0005FE  6FBD               	movwf	(_set_get_effect_structure+1)& (0+255),b
  8691                           
  8692                           ;app_device_joystick.c: 593: set_get_effect_structure.PID_BLOCK_LOAD_REPORT.block_load_s
      +                          tatus=1;
  8693  000600  0E01               	movlw	1
  8694  000602  6FBE               	movwf	(_set_get_effect_structure+2)& (0+255),b
  8695                           
  8696                           ; BSR set to: 0
  8697                           ;app_device_joystick.c: 594: set_get_effect_structure.PID_BLOCK_LOAD_REPORT.ram_pool_ava
      +                          ilable=0xFFFF;
  8698  000604  69BF               	setf	(_set_get_effect_structure+3)& (0+255),b
  8699  000606  69C0               	setf	(_set_get_effect_structure+4)& (0+255),b
  8700                           
  8701                           ;app_device_joystick.c: 596: CONFIGURED_EFFECT_NUMBER[7]=1;
  8702  000608  0E01               	movlw	1
  8703  00060A  6F67               	movwf	(_CONFIGURED_EFFECT_NUMBER+7)& (0+255),b
  8704                           
  8705                           ;app_device_joystick.c: 598: break;
  8706  00060C  0012               	return	
  8707  00060E                     
  8708                           ; BSR set to: 0
  8709                           ;app_device_joystick.c: 600: set_get_effect_structure.PID_BLOCK_LOAD_REPORT.report_id=2;
  8710                           
  8711                           ; BSR set to: 0
  8712  00060E  0E02               	movlw	2
  8713  000610  6FBC               	movwf	_set_get_effect_structure& (0+255),b
  8714                           
  8715                           ;app_device_joystick.c: 601: set_get_effect_structure.PID_BLOCK_LOAD_REPORT.effect_block
      +                          _index=9;
  8716  000612  0E09               	movlw	9
  8717  000614  6FBD               	movwf	(_set_get_effect_structure+1)& (0+255),b
  8718                           
  8719                           ;app_device_joystick.c: 602: set_get_effect_structure.PID_BLOCK_LOAD_REPORT.block_load_s
      +                          tatus=1;
  8720  000616  0E01               	movlw	1
  8721  000618  6FBE               	movwf	(_set_get_effect_structure+2)& (0+255),b
  8722                           
  8723                           ; BSR set to: 0
  8724                           ;app_device_joystick.c: 603: set_get_effect_structure.PID_BLOCK_LOAD_REPORT.ram_pool_ava
      +                          ilable=0xFFFF;
  8725  00061A  69BF               	setf	(_set_get_effect_structure+3)& (0+255),b
  8726  00061C  69C0               	setf	(_set_get_effect_structure+4)& (0+255),b
  8727                           
  8728                           ;app_device_joystick.c: 605: CONFIGURED_EFFECT_NUMBER[8]=1;
  8729  00061E  0E01               	movlw	1
  8730  000620  6F68               	movwf	(_CONFIGURED_EFFECT_NUMBER+8)& (0+255),b
  8731                           
  8732                           ;app_device_joystick.c: 607: break;
  8733  000622  0012               	return	
  8734  000624                     
  8735                           ; BSR set to: 0
  8736                           ;app_device_joystick.c: 609: set_get_effect_structure.PID_BLOCK_LOAD_REPORT.report_id=2;
  8737                           
  8738                           ; BSR set to: 0
  8739  000624  0E02               	movlw	2
  8740  000626  6FBC               	movwf	_set_get_effect_structure& (0+255),b
  8741                           
  8742                           ;app_device_joystick.c: 610: set_get_effect_structure.PID_BLOCK_LOAD_REPORT.effect_block
      +                          _index=10;
  8743  000628  0E0A               	movlw	10
  8744  00062A  6FBD               	movwf	(_set_get_effect_structure+1)& (0+255),b
  8745                           
  8746                           ;app_device_joystick.c: 611: set_get_effect_structure.PID_BLOCK_LOAD_REPORT.block_load_s
      +                          tatus=1;
  8747  00062C  0E01               	movlw	1
  8748  00062E  6FBE               	movwf	(_set_get_effect_structure+2)& (0+255),b
  8749                           
  8750                           ; BSR set to: 0
  8751                           ;app_device_joystick.c: 612: set_get_effect_structure.PID_BLOCK_LOAD_REPORT.ram_pool_ava
      +                          ilable=0xFFFF;
  8752  000630  69BF               	setf	(_set_get_effect_structure+3)& (0+255),b
  8753  000632  69C0               	setf	(_set_get_effect_structure+4)& (0+255),b
  8754                           
  8755                           ;app_device_joystick.c: 614: CONFIGURED_EFFECT_NUMBER[9]=1;
  8756  000634  0E01               	movlw	1
  8757  000636  6F69               	movwf	(_CONFIGURED_EFFECT_NUMBER+9)& (0+255),b
  8758                           
  8759                           ;app_device_joystick.c: 616: break;
  8760  000638  0012               	return	
  8761  00063A                     
  8762                           ; BSR set to: 0
  8763                           ;app_device_joystick.c: 618: set_get_effect_structure.PID_BLOCK_LOAD_REPORT.report_id=2;
  8764                           
  8765                           ; BSR set to: 0
  8766  00063A  0E02               	movlw	2
  8767  00063C  6FBC               	movwf	_set_get_effect_structure& (0+255),b
  8768                           
  8769                           ;app_device_joystick.c: 619: set_get_effect_structure.PID_BLOCK_LOAD_REPORT.effect_block
      +                          _index=11;
  8770  00063E  0E0B               	movlw	11
  8771  000640  6FBD               	movwf	(_set_get_effect_structure+1)& (0+255),b
  8772                           
  8773                           ;app_device_joystick.c: 620: set_get_effect_structure.PID_BLOCK_LOAD_REPORT.block_load_s
      +                          tatus=1;
  8774  000642  0E01               	movlw	1
  8775  000644  6FBE               	movwf	(_set_get_effect_structure+2)& (0+255),b
  8776                           
  8777                           ; BSR set to: 0
  8778                           ;app_device_joystick.c: 621: set_get_effect_structure.PID_BLOCK_LOAD_REPORT.ram_pool_ava
      +                          ilable=0xFFFF;
  8779  000646  69BF               	setf	(_set_get_effect_structure+3)& (0+255),b
  8780  000648  69C0               	setf	(_set_get_effect_structure+4)& (0+255),b
  8781                           
  8782                           ;app_device_joystick.c: 623: CONFIGURED_EFFECT_NUMBER[10]=1;
  8783  00064A  0E01               	movlw	1
  8784  00064C  6F6A               	movwf	(_CONFIGURED_EFFECT_NUMBER+10)& (0+255),b
  8785                           
  8786                           ;app_device_joystick.c: 625: break;
  8787  00064E  0012               	return	
  8788  000650                     
  8789                           ; BSR set to: 0
  8790                           ;app_device_joystick.c: 627: set_get_effect_structure.PID_BLOCK_LOAD_REPORT.report_id=2;
  8791                           
  8792                           ; BSR set to: 0
  8793  000650  0E02               	movlw	2
  8794  000652  6FBC               	movwf	_set_get_effect_structure& (0+255),b
  8795                           
  8796                           ;app_device_joystick.c: 628: set_get_effect_structure.PID_BLOCK_LOAD_REPORT.effect_block
      +                          _index=0;
  8797  000654  0E00               	movlw	0
  8798  000656  6FBD               	movwf	(_set_get_effect_structure+1)& (0+255),b
  8799                           
  8800                           ;app_device_joystick.c: 629: set_get_effect_structure.PID_BLOCK_LOAD_REPORT.block_load_s
      +                          tatus=3;
  8801  000658  0E03               	movlw	3
  8802  00065A  6FBE               	movwf	(_set_get_effect_structure+2)& (0+255),b
  8803                           
  8804                           ;app_device_joystick.c: 630: set_get_effect_structure.PID_BLOCK_LOAD_REPORT.ram_pool_ava
      +                          ilable=0x0000;
  8805  00065C  0E00               	movlw	0
  8806  00065E  6FC0               	movwf	(_set_get_effect_structure+4)& (0+255),b
  8807  000660  0E00               	movlw	0
  8808  000662  6FBF               	movwf	(_set_get_effect_structure+3)& (0+255),b
  8809                           
  8810                           ;app_device_joystick.c: 632: CONFIGURED_EFFECT_NUMBER[11]=0;
  8811  000664  0E00               	movlw	0
  8812  000666  6F6B               	movwf	(_CONFIGURED_EFFECT_NUMBER+11)& (0+255),b
  8813                           
  8814                           ; BSR set to: 0
  8815                           ;app_device_joystick.c: 635: }
  8816                           
  8817                           ;app_device_joystick.c: 634: break;
  8818  000668  0012               	return	
  8819  00066A                     l780:
  8820                           
  8821                           ; BSR set to: 0
  8822  00066A  0100               	movlb	0	; () banked
  8823  00066C  51BD               	movf	(_set_get_effect_structure+1)& (0+255),w,b
  8824                           
  8825                           ; Switch size 1, requested type "space"
  8826                           ; Number of cases is 12, Range of values is 1 to 12
  8827                           ; switch strategies available:
  8828                           ; Name         Instructions Cycles
  8829                           ; simple_byte           37    19 (average)
  8830                           ;	Chosen strategy is simple_byte
  8831  00066E  0A01               	xorlw	1	; case 1
  8832  000670  B4D8               	btfsc	status,2,c
  8833  000672  D774               	goto	l781
  8834  000674  0A03               	xorlw	3	; case 2
  8835  000676  B4D8               	btfsc	status,2,c
  8836  000678  D77D               	goto	l783
  8837  00067A  0A01               	xorlw	1	; case 3
  8838  00067C  B4D8               	btfsc	status,2,c
  8839  00067E  D785               	goto	l784
  8840  000680  0A07               	xorlw	7	; case 4
  8841  000682  B4D8               	btfsc	status,2,c
  8842  000684  D78D               	goto	l785
  8843  000686  0A01               	xorlw	1	; case 5
  8844  000688  B4D8               	btfsc	status,2,c
  8845  00068A  D795               	goto	l786
  8846  00068C  0A03               	xorlw	3	; case 6
  8847  00068E  B4D8               	btfsc	status,2,c
  8848  000690  D79D               	goto	l787
  8849  000692  0A01               	xorlw	1	; case 7
  8850  000694  B4D8               	btfsc	status,2,c
  8851  000696  D7A5               	goto	l788
  8852  000698  0A0F               	xorlw	15	; case 8
  8853  00069A  B4D8               	btfsc	status,2,c
  8854  00069C  D7AD               	goto	l789
  8855  00069E  0A01               	xorlw	1	; case 9
  8856  0006A0  B4D8               	btfsc	status,2,c
  8857  0006A2  D7B5               	goto	l790
  8858  0006A4  0A03               	xorlw	3	; case 10
  8859  0006A6  B4D8               	btfsc	status,2,c
  8860  0006A8  D7BD               	goto	l791
  8861  0006AA  0A01               	xorlw	1	; case 11
  8862  0006AC  B4D8               	btfsc	status,2,c
  8863  0006AE  D7C5               	goto	l792
  8864  0006B0  0A07               	xorlw	7	; case 12
  8865  0006B2  A4D8               	btfss	status,2,c
  8866  0006B4  0012               	return	
  8867  0006B6  D7CC               	goto	l793
  8868  0006B8                     __end_of_USBSetEffect:
  8869                           	opt stack 0
  8870                           tosu	equ	0xFFF
  8871                           tosh	equ	0xFFE
  8872                           tosl	equ	0xFFD
  8873                           pclath	equ	0xFFA
  8874                           tblptru	equ	0xFF8
  8875                           tblptrh	equ	0xFF7
  8876                           tblptrl	equ	0xFF6
  8877                           tablat	equ	0xFF5
  8878                           prodh	equ	0xFF4
  8879                           prodl	equ	0xFF3
  8880                           indf0	equ	0xFEF
  8881                           postinc0	equ	0xFEE
  8882                           fsr0h	equ	0xFEA
  8883                           fsr0l	equ	0xFE9
  8884                           wreg	equ	0xFE8
  8885                           indf1	equ	0xFE7
  8886                           fsr1h	equ	0xFE2
  8887                           fsr1l	equ	0xFE1
  8888                           indf2	equ	0xFDF
  8889                           postinc2	equ	0xFDE
  8890                           postdec2	equ	0xFDD
  8891                           plusw2	equ	0xFDB
  8892                           fsr2h	equ	0xFDA
  8893                           fsr2l	equ	0xFD9
  8894                           status	equ	0xFD8
  8895                           
  8896 ;; *************** function _USBCtrlTrfTxService *****************
  8897 ;; Defined at:
  8898 ;;		line 1778 in file "../../../../../../framework/usb/src/usb_device.c"
  8899 ;; Parameters:    Size  Location     Type
  8900 ;;		None
  8901 ;; Auto vars:     Size  Location     Type
  8902 ;;  byteToSend      1   18[COMRAM] unsigned char 
  8903 ;; Return value:  Size  Location     Type
  8904 ;;                  1    wreg      void 
  8905 ;; Registers used:
  8906 ;;		wreg, fsr0l, fsr0h, fsr2l, fsr2h, status,2, status,0, tblptrl, tblptrh, tblptru
  8907 ;; Tracked objects:
  8908 ;;		On entry : 0/0
  8909 ;;		On exit  : 0/0
  8910 ;;		Unchanged: 0/0
  8911 ;; Data sizes:     COMRAM   BANK0   BANK1   BANK2   BANK3   BANK4   BANK5   BANK6   BANK7
  8912 ;;      Params:         0       0       0       0       0       0       0       0       0
  8913 ;;      Locals:         1       0       0       0       0       0       0       0       0
  8914 ;;      Temps:          0       0       0       0       0       0       0       0       0
  8915 ;;      Totals:         1       0       0       0       0       0       0       0       0
  8916 ;;Total ram usage:        1 bytes
  8917 ;; Hardware stack levels used:    1
  8918 ;; Hardware stack levels required when called:    1
  8919 ;; This function calls:
  8920 ;;		Nothing
  8921 ;; This function is called by:
  8922 ;;		_USBCtrlEPAllowDataStage
  8923 ;;		_USBCtrlTrfInHandler
  8924 ;; This function uses a non-reentrant model
  8925 ;;
  8926                           
  8927                           	psect	text36
  8928  001200                     __ptext36:
  8929                           	opt stack 0
  8930  001200                     _USBCtrlTrfTxService:
  8931                           	opt stack 24
  8932                           
  8933                           ;usb_device.c: 1780: uint8_t byteToSend;
  8934                           ;usb_device.c: 1784: byteToSend = 8;
  8935                           
  8936                           ; BSR set to: 0
  8937                           ;incstack = 0
  8938  001200  0E08               	movlw	8
  8939  001202  6E42               	movwf	USBCtrlTrfTxService@byteToSend,c
  8940                           
  8941                           ;usb_device.c: 1785: if(inPipes[0].wCount.Val < (uint8_t)8)
  8942  001204  500E               	movf	_inPipes+5,w,c
  8943  001206  E110               	bnz	l4563
  8944  001208  0E08               	movlw	8
  8945  00120A  5C0D               	subwf	_inPipes+4,w,c
  8946  00120C  B0D8               	btfsc	status,0,c
  8947  00120E  D00C               	goto	l339
  8948                           
  8949                           ;usb_device.c: 1786: {
  8950                           ;usb_device.c: 1787: byteToSend = inPipes[0].wCount.Val;
  8951  001210  C00D  F042         	movff	_inPipes+4,USBCtrlTrfTxService@byteToSend
  8952                           
  8953                           ;usb_device.c: 1794: if(shortPacketStatus == 0)
  8954  001214  502B               	movf	_shortPacketStatus,w,c
  8955  001216  A4D8               	btfss	status,2,c
  8956  001218  D002               	goto	l337
  8957                           
  8958                           ;usb_device.c: 1795: {
  8959                           ;usb_device.c: 1796: shortPacketStatus = 1;
  8960  00121A  0E01               	movlw	1
  8961  00121C  D004               	goto	L13
  8962  00121E                     l337:
  8963                           
  8964                           ;usb_device.c: 1798: else if(shortPacketStatus == 1)
  8965  00121E  042B               	decf	_shortPacketStatus,w,c
  8966  001220  A4D8               	btfss	status,2,c
  8967  001222  D002               	goto	l339
  8968                           
  8969                           ;usb_device.c: 1799: {
  8970                           ;usb_device.c: 1800: shortPacketStatus = 2;
  8971  001224  0E02               	movlw	2
  8972  001226                     L13:
  8973  001226  6E2B               	movwf	_shortPacketStatus,c
  8974  001228                     l339:
  8975  001228                     l4563:
  8976                           
  8977                           ;usb_device.c: 1801: }
  8978                           ;usb_device.c: 1802: }
  8979                           ;usb_device.c: 1806: inPipes[0].wCount.Val -= byteToSend;
  8980  001228  5042               	movf	USBCtrlTrfTxService@byteToSend,w,c
  8981  00122A  5E0D               	subwf	_inPipes+4,f,c
  8982  00122C  0E00               	movlw	0
  8983  00122E  5A0E               	subwfb	_inPipes+5,f,c
  8984                           
  8985                           ;usb_device.c: 1811: pBDTEntryIn[0]->CNT = byteToSend;
  8986  001230  EE20 F001          	lfsr	2,1
  8987  001234  500F               	movf	_pBDTEntryIn,w,c
  8988  001236  26D9               	addwf	fsr2l,f,c
  8989  001238  5010               	movf	_pBDTEntryIn+1,w,c
  8990  00123A  22DA               	addwfc	fsr2h,f,c
  8991  00123C  C042  FFDF         	movff	USBCtrlTrfTxService@byteToSend,indf2
  8992                           
  8993                           ;usb_device.c: 1815: pDst = ( uint8_t*)CtrlTrfData;
  8994  001240  0E28               	movlw	40
  8995  001242  0100               	movlb	0	; () banked
  8996  001244  6F7A               	movwf	_pDst& (0+255),b
  8997  001246  0E04               	movlw	4
  8998  001248  6F7B               	movwf	(_pDst+1)& (0+255),b
  8999                           
  9000                           ; BSR set to: 0
  9001                           ;usb_device.c: 1816: if(inPipes[0].info.bits.ctrl_trf_mem == 0x00)
  9002  00124A  A00C               	btfss	_inPipes+3,0,c
  9003  00124C  D01C               	goto	l341
  9004  00124E  D03A               	goto	l345
  9005  001250                     
  9006                           ; BSR set to: 0
  9007                           ;usb_device.c: 1819: {
  9008                           ;usb_device.c: 1820: *pDst++ = *inPipes[0].pSrc.bRom++;
  9009                           
  9010                           ; BSR set to: 0
  9011  001250  C009  FFF6         	movff	_inPipes,tblptrl
  9012  001254  C00A  FFF7         	movff	_inPipes+1,tblptrh
  9013  001258  6AF8               	clrf	tblptru,c
  9014  00125A  C07A  FFD9         	movff	_pDst,fsr2l
  9015  00125E  C07B  FFDA         	movff	_pDst+1,fsr2h
  9016  001262  0E07               	movlw	(high __ramtop+-1)
  9017  001264  64F7               	cpfsgt	tblptrh,c
  9018  001266  D003               	bra	u4187
  9019  001268  0008               	tblrd		*
  9020  00126A  50F5               	movf	tablat,w,c
  9021  00126C  D005               	bra	u4180
  9022  00126E                     u4187:
  9023  00126E  CFF6 FFE9          	movff	tblptrl,fsr0l
  9024  001272  CFF7 FFEA          	movff	tblptrh,fsr0h
  9025  001276  50EF               	movf	indf0,w,c
  9026  001278                     u4180:
  9027  001278  6EDF               	movwf	indf2,c
  9028  00127A  4A09               	infsnz	_inPipes,f,c
  9029  00127C  2A0A               	incf	_inPipes+1,f,c
  9030  00127E  0100               	movlb	0	; () banked
  9031  001280  4B7A               	infsnz	_pDst& (0+255),f,b
  9032  001282  2B7B               	incf	(_pDst+1)& (0+255),f,b
  9033                           
  9034                           ; BSR set to: 0
  9035                           ;usb_device.c: 1821: byteToSend--;
  9036  001284  0642               	decf	USBCtrlTrfTxService@byteToSend,f,c
  9037  001286                     l341:
  9038                           
  9039                           ; BSR set to: 0
  9040                           
  9041                           ; BSR set to: 0
  9042  001286  5042               	movf	USBCtrlTrfTxService@byteToSend,w,c
  9043  001288  B4D8               	btfsc	status,2,c
  9044  00128A  0012               	return	
  9045  00128C  D7E1               	goto	l342
  9046  00128E                     
  9047                           ; BSR set to: 0
  9048                           ;usb_device.c: 1827: {
  9049                           ;usb_device.c: 1828: *pDst++ = *inPipes[0].pSrc.bRam++;
  9050                           
  9051                           ; BSR set to: 0
  9052  00128E  C009  FFF6         	movff	_inPipes,tblptrl
  9053  001292  C00A  FFF7         	movff	_inPipes+1,tblptrh
  9054  001296  6AF8               	clrf	tblptru,c
  9055  001298  C07A  FFD9         	movff	_pDst,fsr2l
  9056  00129C  C07B  FFDA         	movff	_pDst+1,fsr2h
  9057  0012A0  0E07               	movlw	(high __ramtop+-1)
  9058  0012A2  64F7               	cpfsgt	tblptrh,c
  9059  0012A4  D003               	bra	u4207
  9060  0012A6  0008               	tblrd		*
  9061  0012A8  50F5               	movf	tablat,w,c
  9062  0012AA  D005               	bra	u4200
  9063  0012AC                     u4207:
  9064  0012AC  CFF6 FFE9          	movff	tblptrl,fsr0l
  9065  0012B0  CFF7 FFEA          	movff	tblptrh,fsr0h
  9066  0012B4  50EF               	movf	indf0,w,c
  9067  0012B6                     u4200:
  9068  0012B6  6EDF               	movwf	indf2,c
  9069  0012B8  4A09               	infsnz	_inPipes,f,c
  9070  0012BA  2A0A               	incf	_inPipes+1,f,c
  9071  0012BC  0100               	movlb	0	; () banked
  9072  0012BE  4B7A               	infsnz	_pDst& (0+255),f,b
  9073  0012C0  2B7B               	incf	(_pDst+1)& (0+255),f,b
  9074                           
  9075                           ; BSR set to: 0
  9076                           ;usb_device.c: 1829: byteToSend--;
  9077  0012C2  0642               	decf	USBCtrlTrfTxService@byteToSend,f,c
  9078  0012C4                     l345:
  9079                           
  9080                           ; BSR set to: 0
  9081                           
  9082                           ; BSR set to: 0
  9083  0012C4  5042               	movf	USBCtrlTrfTxService@byteToSend,w,c
  9084  0012C6  B4D8               	btfsc	status,2,c
  9085  0012C8  0012               	return	
  9086  0012CA  D7E1               	goto	l346
  9087  0012CC                     __end_of_USBCtrlTrfTxService:
  9088                           	opt stack 0
  9089                           tosu	equ	0xFFF
  9090                           tosh	equ	0xFFE
  9091                           tosl	equ	0xFFD
  9092                           pclath	equ	0xFFA
  9093                           tblptru	equ	0xFF8
  9094                           tblptrh	equ	0xFF7
  9095                           tblptrl	equ	0xFF6
  9096                           tablat	equ	0xFF5
  9097                           prodh	equ	0xFF4
  9098                           prodl	equ	0xFF3
  9099                           indf0	equ	0xFEF
  9100                           postinc0	equ	0xFEE
  9101                           fsr0h	equ	0xFEA
  9102                           fsr0l	equ	0xFE9
  9103                           wreg	equ	0xFE8
  9104                           indf1	equ	0xFE7
  9105                           fsr1h	equ	0xFE2
  9106                           fsr1l	equ	0xFE1
  9107                           indf2	equ	0xFDF
  9108                           postinc2	equ	0xFDE
  9109                           postdec2	equ	0xFDD
  9110                           plusw2	equ	0xFDB
  9111                           fsr2h	equ	0xFDA
  9112                           fsr2l	equ	0xFD9
  9113                           status	equ	0xFD8
  9114                           
  9115 ;; *************** function _APP_DeviceJoystickTasks *****************
  9116 ;; Defined at:
  9117 ;;		line 293 in file "../demo_src/app_device_joystick.c"
  9118 ;; Parameters:    Size  Location     Type
  9119 ;;		None
  9120 ;; Auto vars:     Size  Location     Type
  9121 ;;		None
  9122 ;; Return value:  Size  Location     Type
  9123 ;;                  1    wreg      void 
  9124 ;; Registers used:
  9125 ;;		wreg, fsr2l, fsr2h, status,2, status,0, prodl, prodh, cstack
  9126 ;; Tracked objects:
  9127 ;;		On entry : 0/0
  9128 ;;		On exit  : 0/0
  9129 ;;		Unchanged: 0/0
  9130 ;; Data sizes:     COMRAM   BANK0   BANK1   BANK2   BANK3   BANK4   BANK5   BANK6   BANK7
  9131 ;;      Params:         0       0       0       0       0       0       0       0       0
  9132 ;;      Locals:         0       0       0       0       0       0       0       0       0
  9133 ;;      Temps:          1       0       0       0       0       0       0       0       0
  9134 ;;      Totals:         1       0       0       0       0       0       0       0       0
  9135 ;;Total ram usage:        1 bytes
  9136 ;; Hardware stack levels used:    1
  9137 ;; Hardware stack levels required when called:    2
  9138 ;; This function calls:
  9139 ;;		_BUTTON_IsPressed
  9140 ;;		_PEDAL_Position
  9141 ;;		_USBTransferOnePacket
  9142 ;;		_WHEEL_Test
  9143 ;; This function is called by:
  9144 ;;		_main
  9145 ;; This function uses a non-reentrant model
  9146 ;;
  9147                           
  9148                           	psect	text37
  9149  00032A                     __ptext37:
  9150                           	opt stack 0
  9151  00032A                     _APP_DeviceJoystickTasks:
  9152                           	opt stack 28
  9153                           
  9154                           ;app_device_joystick.c: 298: if( USBDeviceState < CONFIGURED_STATE )
  9155                           
  9156                           ; BSR set to: 0
  9157                           ;incstack = 0
  9158  00032A  0E20               	movlw	32
  9159  00032C  602C               	cpfslt	_USBDeviceState,c
  9160  00032E  D001               	goto	l744
  9161  000330  0012               	return	
  9162  000332                     l744:
  9163                           
  9164                           ;app_device_joystick.c: 302: }
  9165                           ;app_device_joystick.c: 308: if( UCONbits.SUSPND == 1 )
  9166  000332  B260               	btfsc	3936,1,c	;volatile
  9167  000334  0012               	return	
  9168                           
  9169                           ;app_device_joystick.c: 312: }
  9170                           ;app_device_joystick.c: 315: if(!((lastTransmission != 0x0000) && ((*(volatile uint8_t*)
      +                          lastTransmission & 0x80) != 0x00)))
  9171                           
  9172                           ;app_device_joystick.c: 309: {
  9173                           ;app_device_joystick.c: 311: return;
  9174  000336  0100               	movlb	0	; () banked
  9175  000338  5174               	movf	_lastTransmission& (0+255),w,b
  9176  00033A  1175               	iorwf	(_lastTransmission+1)& (0+255),w,b
  9177  00033C  B4D8               	btfsc	status,2,c
  9178  00033E  D006               	goto	u5320
  9179                           
  9180                           ; BSR set to: 0
  9181  000340  C074  FFD9         	movff	_lastTransmission,fsr2l
  9182  000344  C075  FFDA         	movff	_lastTransmission+1,fsr2h
  9183  000348  BEDF               	btfsc	indf2,7,c
  9184  00034A  0012               	return	
  9185  00034C                     u5320:
  9186                           
  9187                           ; BSR set to: 0
  9188                           ;app_device_joystick.c: 316: {
  9189                           ;app_device_joystick.c: 317: if(BUTTON_IsPressed(BUTTON_S2) == 1)
  9190                           
  9191                           ; BSR set to: 0
  9192  00034C  0E01               	movlw	1
  9193  00034E  EC51  F006         	call	_BUTTON_IsPressed
  9194  000352  06E8               	decf	wreg,f,c
  9195  000354  A4D8               	btfss	status,2,c
  9196  000356  D005               	goto	l750
  9197                           
  9198                           ;app_device_joystick.c: 318: {
  9199                           ;app_device_joystick.c: 319: joystick_input.members.buttons.x = 1;
  9200  000358  0105               	movlb	5	; () banked
  9201  00035A  8301               	bsf	1,1,b
  9202                           
  9203                           ; BSR set to: 5
  9204                           ;app_device_joystick.c: 320: Buttons_Pressed = 1;
  9205  00035C  0E01               	movlw	1
  9206  00035E  6E1B               	movwf	_Buttons_Pressed,c
  9207                           
  9208                           ;app_device_joystick.c: 321: }
  9209  000360  D002               	goto	l751
  9210  000362                     l750:
  9211                           
  9212                           ;app_device_joystick.c: 322: else
  9213                           ;app_device_joystick.c: 323: {
  9214                           ;app_device_joystick.c: 324: joystick_input.members.buttons.x = 0;
  9215  000362  0105               	movlb	5	; () banked
  9216  000364  9301               	bcf	1,1,b
  9217  000366                     l751:
  9218                           
  9219                           ; BSR set to: 5
  9220                           ;app_device_joystick.c: 325: }
  9221                           ;app_device_joystick.c: 326: if(BUTTON_IsPressed(BUTTON_S3) == 1)
  9222                           
  9223                           ; BSR set to: 5
  9224  000366  0E02               	movlw	2
  9225  000368  EC51  F006         	call	_BUTTON_IsPressed
  9226  00036C  06E8               	decf	wreg,f,c
  9227  00036E  A4D8               	btfss	status,2,c
  9228  000370  D005               	goto	l752
  9229                           
  9230                           ;app_device_joystick.c: 327: {
  9231                           ;app_device_joystick.c: 328: joystick_input.members.buttons.square = 1;
  9232  000372  0105               	movlb	5	; () banked
  9233  000374  8101               	bsf	1,0,b
  9234                           
  9235                           ; BSR set to: 5
  9236                           ;app_device_joystick.c: 329: Buttons_Pressed = 1;
  9237  000376  0E01               	movlw	1
  9238  000378  6E1B               	movwf	_Buttons_Pressed,c
  9239                           
  9240                           ;app_device_joystick.c: 330: }
  9241  00037A  D002               	goto	l753
  9242  00037C                     l752:
  9243                           
  9244                           ;app_device_joystick.c: 331: else
  9245                           ;app_device_joystick.c: 332: {
  9246                           ;app_device_joystick.c: 333: joystick_input.members.buttons.square = 0;
  9247  00037C  0105               	movlb	5	; () banked
  9248  00037E  9101               	bcf	1,0,b
  9249  000380                     l753:
  9250                           
  9251                           ; BSR set to: 5
  9252                           ;app_device_joystick.c: 334: }
  9253                           ;app_device_joystick.c: 335: if(BUTTON_IsPressed(BUTTON_S4) == 1)
  9254                           
  9255                           ; BSR set to: 5
  9256  000380  0E03               	movlw	3
  9257  000382  EC51  F006         	call	_BUTTON_IsPressed
  9258  000386  06E8               	decf	wreg,f,c
  9259  000388  A4D8               	btfss	status,2,c
  9260  00038A  D005               	goto	l754
  9261                           
  9262                           ;app_device_joystick.c: 336: {
  9263                           ;app_device_joystick.c: 337: joystick_input.members.buttons.o = 1;
  9264  00038C  0105               	movlb	5	; () banked
  9265  00038E  8501               	bsf	1,2,b
  9266                           
  9267                           ; BSR set to: 5
  9268                           ;app_device_joystick.c: 338: Buttons_Pressed = 1;
  9269  000390  0E01               	movlw	1
  9270  000392  6E1B               	movwf	_Buttons_Pressed,c
  9271                           
  9272                           ;app_device_joystick.c: 339: }
  9273  000394  D002               	goto	l755
  9274  000396                     l754:
  9275                           
  9276                           ;app_device_joystick.c: 340: else
  9277                           ;app_device_joystick.c: 341: {
  9278                           ;app_device_joystick.c: 342: joystick_input.members.buttons.o = 0;
  9279  000396  0105               	movlb	5	; () banked
  9280  000398  9501               	bcf	1,2,b
  9281  00039A                     l755:
  9282                           
  9283                           ; BSR set to: 5
  9284                           ;app_device_joystick.c: 343: }
  9285                           ;app_device_joystick.c: 344: if(BUTTON_IsPressed(BUTTON_S5) == 1)
  9286                           
  9287                           ; BSR set to: 5
  9288  00039A  0E04               	movlw	4
  9289  00039C  EC51  F006         	call	_BUTTON_IsPressed
  9290  0003A0  06E8               	decf	wreg,f,c
  9291  0003A2  A4D8               	btfss	status,2,c
  9292  0003A4  D005               	goto	l756
  9293                           
  9294                           ;app_device_joystick.c: 345: {
  9295                           ;app_device_joystick.c: 346: joystick_input.members.buttons.triangle = 1;
  9296  0003A6  0105               	movlb	5	; () banked
  9297  0003A8  8701               	bsf	1,3,b
  9298                           
  9299                           ; BSR set to: 5
  9300                           ;app_device_joystick.c: 347: Buttons_Pressed = 1;
  9301  0003AA  0E01               	movlw	1
  9302  0003AC  6E1B               	movwf	_Buttons_Pressed,c
  9303                           
  9304                           ;app_device_joystick.c: 348: }
  9305  0003AE  D002               	goto	l757
  9306  0003B0                     l756:
  9307                           
  9308                           ;app_device_joystick.c: 349: else
  9309                           ;app_device_joystick.c: 350: {
  9310                           ;app_device_joystick.c: 351: joystick_input.members.buttons.triangle = 0;
  9311  0003B0  0105               	movlb	5	; () banked
  9312  0003B2  9701               	bcf	1,3,b
  9313  0003B4                     l757:
  9314                           
  9315                           ; BSR set to: 5
  9316                           ;app_device_joystick.c: 352: }
  9317                           ;app_device_joystick.c: 353: if(BUTTON_IsPressed(BUTTON_S6) == 1)
  9318                           
  9319                           ; BSR set to: 5
  9320  0003B4  0E05               	movlw	5
  9321  0003B6  EC51  F006         	call	_BUTTON_IsPressed
  9322  0003BA  06E8               	decf	wreg,f,c
  9323  0003BC  A4D8               	btfss	status,2,c
  9324  0003BE  D005               	goto	l758
  9325                           
  9326                           ;app_device_joystick.c: 354: {
  9327                           ;app_device_joystick.c: 355: joystick_input.members.buttons.L1 = 1;
  9328  0003C0  0105               	movlb	5	; () banked
  9329  0003C2  8901               	bsf	1,4,b
  9330                           
  9331                           ; BSR set to: 5
  9332                           ;app_device_joystick.c: 356: Buttons_Pressed = 1;
  9333  0003C4  0E01               	movlw	1
  9334  0003C6  6E1B               	movwf	_Buttons_Pressed,c
  9335                           
  9336                           ;app_device_joystick.c: 357: }
  9337  0003C8  D002               	goto	l759
  9338  0003CA                     l758:
  9339                           
  9340                           ;app_device_joystick.c: 358: else
  9341                           ;app_device_joystick.c: 359: {
  9342                           ;app_device_joystick.c: 360: joystick_input.members.buttons.L1 = 0;
  9343  0003CA  0105               	movlb	5	; () banked
  9344  0003CC  9901               	bcf	1,4,b
  9345  0003CE                     l759:
  9346                           
  9347                           ; BSR set to: 5
  9348                           ;app_device_joystick.c: 361: }
  9349                           ;app_device_joystick.c: 362: if(BUTTON_IsPressed(BUTTON_S7) == 1)
  9350                           
  9351                           ; BSR set to: 5
  9352  0003CE  0E06               	movlw	6
  9353  0003D0  EC51  F006         	call	_BUTTON_IsPressed
  9354  0003D4  06E8               	decf	wreg,f,c
  9355  0003D6  A4D8               	btfss	status,2,c
  9356  0003D8  D005               	goto	l760
  9357                           
  9358                           ;app_device_joystick.c: 363: {
  9359                           ;app_device_joystick.c: 364: joystick_input.members.buttons.R1 = 1;
  9360  0003DA  0105               	movlb	5	; () banked
  9361  0003DC  8B01               	bsf	1,5,b
  9362                           
  9363                           ; BSR set to: 5
  9364                           ;app_device_joystick.c: 365: Buttons_Pressed = 1;
  9365  0003DE  0E01               	movlw	1
  9366  0003E0  6E1B               	movwf	_Buttons_Pressed,c
  9367                           
  9368                           ;app_device_joystick.c: 366: }
  9369  0003E2  D002               	goto	l761
  9370  0003E4                     l760:
  9371                           
  9372                           ;app_device_joystick.c: 367: else
  9373                           ;app_device_joystick.c: 368: {
  9374                           ;app_device_joystick.c: 369: joystick_input.members.buttons.R1 = 0;
  9375  0003E4  0105               	movlb	5	; () banked
  9376  0003E6  9B01               	bcf	1,5,b
  9377  0003E8                     l761:
  9378                           
  9379                           ; BSR set to: 5
  9380                           ;app_device_joystick.c: 370: }
  9381                           ;app_device_joystick.c: 371: if(BUTTON_IsPressed(BUTTON_S8) == 1)
  9382                           
  9383                           ; BSR set to: 5
  9384  0003E8  0E07               	movlw	7
  9385  0003EA  EC51  F006         	call	_BUTTON_IsPressed
  9386  0003EE  06E8               	decf	wreg,f,c
  9387  0003F0  A4D8               	btfss	status,2,c
  9388  0003F2  D005               	goto	l762
  9389                           
  9390                           ;app_device_joystick.c: 372: {
  9391                           ;app_device_joystick.c: 373: joystick_input.members.buttons.L2 = 1;
  9392  0003F4  0105               	movlb	5	; () banked
  9393  0003F6  8D01               	bsf	1,6,b
  9394                           
  9395                           ; BSR set to: 5
  9396                           ;app_device_joystick.c: 374: Buttons_Pressed = 1;
  9397  0003F8  0E01               	movlw	1
  9398  0003FA  6E1B               	movwf	_Buttons_Pressed,c
  9399                           
  9400                           ;app_device_joystick.c: 375: }
  9401  0003FC  D002               	goto	l763
  9402  0003FE                     l762:
  9403                           
  9404                           ;app_device_joystick.c: 376: else
  9405                           ;app_device_joystick.c: 377: {
  9406                           ;app_device_joystick.c: 378: joystick_input.members.buttons.L2 = 0;
  9407  0003FE  0105               	movlb	5	; () banked
  9408  000400  9D01               	bcf	1,6,b
  9409  000402                     l763:
  9410                           
  9411                           ; BSR set to: 5
  9412                           ;app_device_joystick.c: 379: }
  9413                           ;app_device_joystick.c: 380: if(BUTTON_IsPressed(BUTTON_S9) == 1)
  9414                           
  9415                           ; BSR set to: 5
  9416  000402  0E08               	movlw	8
  9417  000404  EC51  F006         	call	_BUTTON_IsPressed
  9418  000408  06E8               	decf	wreg,f,c
  9419  00040A  A4D8               	btfss	status,2,c
  9420  00040C  D005               	goto	l764
  9421                           
  9422                           ;app_device_joystick.c: 381: {
  9423                           ;app_device_joystick.c: 382: joystick_input.members.buttons.R2 = 1;
  9424  00040E  0105               	movlb	5	; () banked
  9425  000410  8F01               	bsf	1,7,b
  9426                           
  9427                           ; BSR set to: 5
  9428                           ;app_device_joystick.c: 383: Buttons_Pressed = 1;
  9429  000412  0E01               	movlw	1
  9430  000414  6E1B               	movwf	_Buttons_Pressed,c
  9431                           
  9432                           ;app_device_joystick.c: 384: }
  9433  000416  D002               	goto	l765
  9434  000418                     l764:
  9435                           
  9436                           ;app_device_joystick.c: 385: else
  9437                           ;app_device_joystick.c: 386: {
  9438                           ;app_device_joystick.c: 387: joystick_input.members.buttons.R2 = 0;
  9439  000418  0105               	movlb	5	; () banked
  9440  00041A  9F01               	bcf	1,7,b
  9441  00041C                     l765:
  9442                           
  9443                           ; BSR set to: 5
  9444                           ;app_device_joystick.c: 388: }
  9445                           ;app_device_joystick.c: 389: if(BUTTON_IsPressed(BUTTON_S10) == 1)
  9446                           
  9447                           ; BSR set to: 5
  9448  00041C  0E09               	movlw	9
  9449  00041E  EC51  F006         	call	_BUTTON_IsPressed
  9450  000422  06E8               	decf	wreg,f,c
  9451  000424  A4D8               	btfss	status,2,c
  9452  000426  D005               	goto	l766
  9453                           
  9454                           ;app_device_joystick.c: 390: {
  9455                           ;app_device_joystick.c: 391: joystick_input.members.buttons.select = 1;
  9456  000428  0105               	movlb	5	; () banked
  9457  00042A  8102               	bsf	2,0,b
  9458                           
  9459                           ; BSR set to: 5
  9460                           ;app_device_joystick.c: 392: Buttons_Pressed = 1;
  9461  00042C  0E01               	movlw	1
  9462  00042E  6E1B               	movwf	_Buttons_Pressed,c
  9463                           
  9464                           ;app_device_joystick.c: 393: }
  9465  000430  D002               	goto	l767
  9466  000432                     l766:
  9467                           
  9468                           ;app_device_joystick.c: 394: else
  9469                           ;app_device_joystick.c: 395: {
  9470                           ;app_device_joystick.c: 396: joystick_input.members.buttons.select = 0;
  9471  000432  0105               	movlb	5	; () banked
  9472  000434  9102               	bcf	2,0,b
  9473  000436                     l767:
  9474                           
  9475                           ; BSR set to: 5
  9476                           ;app_device_joystick.c: 397: }
  9477                           ;app_device_joystick.c: 398: if(BUTTON_IsPressed(BUTTON_S11) == 1)
  9478                           
  9479                           ; BSR set to: 5
  9480  000436  0E0A               	movlw	10
  9481  000438  EC51  F006         	call	_BUTTON_IsPressed
  9482  00043C  06E8               	decf	wreg,f,c
  9483  00043E  A4D8               	btfss	status,2,c
  9484  000440  D005               	goto	l768
  9485                           
  9486                           ;app_device_joystick.c: 399: {
  9487                           ;app_device_joystick.c: 400: joystick_input.members.buttons.start = 1;
  9488  000442  0105               	movlb	5	; () banked
  9489  000444  8302               	bsf	2,1,b
  9490                           
  9491                           ; BSR set to: 5
  9492                           ;app_device_joystick.c: 401: Buttons_Pressed = 1;
  9493  000446  0E01               	movlw	1
  9494  000448  6E1B               	movwf	_Buttons_Pressed,c
  9495                           
  9496                           ;app_device_joystick.c: 402: }
  9497  00044A  D002               	goto	l769
  9498  00044C                     l768:
  9499                           
  9500                           ;app_device_joystick.c: 403: else
  9501                           ;app_device_joystick.c: 404: {
  9502                           ;app_device_joystick.c: 405: joystick_input.members.buttons.start = 0;
  9503  00044C  0105               	movlb	5	; () banked
  9504  00044E  9302               	bcf	2,1,b
  9505  000450                     l769:
  9506                           
  9507                           ; BSR set to: 5
  9508                           ;app_device_joystick.c: 406: }
  9509                           ;app_device_joystick.c: 407: if(BUTTON_IsPressed(BUTTON_S12) == 1)
  9510                           
  9511                           ; BSR set to: 5
  9512  000450  0E0B               	movlw	11
  9513  000452  EC51  F006         	call	_BUTTON_IsPressed
  9514  000456  06E8               	decf	wreg,f,c
  9515  000458  A4D8               	btfss	status,2,c
  9516  00045A  D005               	goto	l770
  9517                           
  9518                           ;app_device_joystick.c: 408: {
  9519                           ;app_device_joystick.c: 409: joystick_input.members.buttons.left_stick = 1;
  9520  00045C  0105               	movlb	5	; () banked
  9521  00045E  8502               	bsf	2,2,b
  9522                           
  9523                           ; BSR set to: 5
  9524                           ;app_device_joystick.c: 410: Buttons_Pressed = 1;
  9525  000460  0E01               	movlw	1
  9526  000462  6E1B               	movwf	_Buttons_Pressed,c
  9527                           
  9528                           ;app_device_joystick.c: 411: }
  9529  000464  D002               	goto	l771
  9530  000466                     l770:
  9531                           
  9532                           ;app_device_joystick.c: 412: else
  9533                           ;app_device_joystick.c: 413: {
  9534                           ;app_device_joystick.c: 414: joystick_input.members.buttons.left_stick = 0;
  9535  000466  0105               	movlb	5	; () banked
  9536  000468  9502               	bcf	2,2,b
  9537  00046A                     l771:
  9538                           
  9539                           ; BSR set to: 5
  9540                           ;app_device_joystick.c: 415: }
  9541                           ;app_device_joystick.c: 416: if(BUTTON_IsPressed(BUTTON_S13) == 1)
  9542                           
  9543                           ; BSR set to: 5
  9544  00046A  0E0C               	movlw	12
  9545  00046C  EC51  F006         	call	_BUTTON_IsPressed
  9546  000470  06E8               	decf	wreg,f,c
  9547  000472  A4D8               	btfss	status,2,c
  9548  000474  D005               	goto	l772
  9549                           
  9550                           ;app_device_joystick.c: 417: {
  9551                           ;app_device_joystick.c: 418: joystick_input.members.buttons.right_stick = 1;
  9552  000476  0105               	movlb	5	; () banked
  9553  000478  8702               	bsf	2,3,b
  9554                           
  9555                           ; BSR set to: 5
  9556                           ;app_device_joystick.c: 419: Buttons_Pressed = 1;
  9557  00047A  0E01               	movlw	1
  9558  00047C  6E1B               	movwf	_Buttons_Pressed,c
  9559                           
  9560                           ;app_device_joystick.c: 420: }
  9561  00047E  D002               	goto	l773
  9562  000480                     l772:
  9563                           
  9564                           ;app_device_joystick.c: 421: else
  9565                           ;app_device_joystick.c: 422: {
  9566                           ;app_device_joystick.c: 423: joystick_input.members.buttons.right_stick = 0;
  9567  000480  0105               	movlb	5	; () banked
  9568  000482  9702               	bcf	2,3,b
  9569  000484                     l773:
  9570                           
  9571                           ; BSR set to: 5
  9572                           ;app_device_joystick.c: 424: }
  9573                           ;app_device_joystick.c: 425: if(BUTTON_IsPressed(BUTTON_S14) == 1)
  9574                           
  9575                           ; BSR set to: 5
  9576  000484  0E0D               	movlw	13
  9577  000486  EC51  F006         	call	_BUTTON_IsPressed
  9578  00048A  06E8               	decf	wreg,f,c
  9579  00048C  A4D8               	btfss	status,2,c
  9580  00048E  D005               	goto	l774
  9581                           
  9582                           ;app_device_joystick.c: 426: {
  9583                           ;app_device_joystick.c: 427: joystick_input.members.buttons.home = 1;
  9584  000490  0105               	movlb	5	; () banked
  9585  000492  8902               	bsf	2,4,b
  9586                           
  9587                           ; BSR set to: 5
  9588                           ;app_device_joystick.c: 428: Buttons_Pressed = 1;
  9589  000494  0E01               	movlw	1
  9590  000496  6E1B               	movwf	_Buttons_Pressed,c
  9591                           
  9592                           ;app_device_joystick.c: 429: }
  9593  000498  D002               	goto	l775
  9594  00049A                     l774:
  9595                           
  9596                           ;app_device_joystick.c: 430: else
  9597                           ;app_device_joystick.c: 431: {
  9598                           ;app_device_joystick.c: 432: joystick_input.members.buttons.home = 0;
  9599  00049A  0105               	movlb	5	; () banked
  9600  00049C  9902               	bcf	2,4,b
  9601  00049E                     l775:
  9602                           
  9603                           ; BSR set to: 5
  9604                           ;app_device_joystick.c: 433: }
  9605                           ;app_device_joystick.c: 436: joystick_input.members.hat_switch.hat_switch = 0x2;
  9606                           
  9607                           ; BSR set to: 5
  9608  00049E  5103               	movf	3,w,b
  9609  0004A0  0BF0               	andlw	-16
  9610  0004A2  0902               	iorlw	2
  9611  0004A4  6F03               	movwf	3,b
  9612                           
  9613                           ; BSR set to: 5
  9614                           ;app_device_joystick.c: 441: joystick_input.members.analog_stick.X = WHEEL_Test(WHEEL_W1
      +                          );
  9615  0004A6  0E01               	movlw	1
  9616  0004A8  EC82  F00C         	call	_WHEEL_Test
  9617  0004AC  6E4A               	movwf	??_APP_DeviceJoystickTasks& (0+255),c
  9618  0004AE  504A               	movf	??_APP_DeviceJoystickTasks,w,c
  9619  0004B0  0105               	movlb	5	; () banked
  9620  0004B2  6F04               	movwf	4,b
  9621  0004B4  6B05               	clrf	5,b
  9622                           
  9623                           ; BSR set to: 5
  9624                           ;app_device_joystick.c: 442: joystick_input.members.analog_stick.Y = PEDAL_Position(PEDA
      +                          L_BREAK);
  9625  0004B6  0E01               	movlw	1
  9626  0004B8  EC1C  F00C         	call	_PEDAL_Position
  9627  0004BC  6E4A               	movwf	??_APP_DeviceJoystickTasks& (0+255),c
  9628  0004BE  504A               	movf	??_APP_DeviceJoystickTasks,w,c
  9629  0004C0  0105               	movlb	5	; () banked
  9630  0004C2  6F06               	movwf	6,b
  9631  0004C4  6B07               	clrf	7,b
  9632                           
  9633                           ; BSR set to: 5
  9634                           ;app_device_joystick.c: 443: joystick_input.members.analog_stick.Z = PEDAL_Position(PEDA
      +                          L_CLUTCH);
  9635  0004C6  0E02               	movlw	2
  9636  0004C8  EC1C  F00C         	call	_PEDAL_Position
  9637  0004CC  6E4A               	movwf	??_APP_DeviceJoystickTasks& (0+255),c
  9638  0004CE  504A               	movf	??_APP_DeviceJoystickTasks,w,c
  9639  0004D0  0105               	movlb	5	; () banked
  9640  0004D2  6F08               	movwf	8,b
  9641  0004D4  6B09               	clrf	9,b
  9642                           
  9643                           ; BSR set to: 5
  9644                           ;app_device_joystick.c: 446: if(Buttons_Pressed)
  9645  0004D6  501B               	movf	_Buttons_Pressed,w,c
  9646  0004D8  B4D8               	btfsc	status,2,c
  9647  0004DA  D00F               	goto	l776
  9648                           
  9649                           ; BSR set to: 5
  9650                           ;app_device_joystick.c: 447: {
  9651                           ;app_device_joystick.c: 449: lastTransmission = USBTransferOnePacket(1,1,(uint8_t*)&joys
      +                          tick_input,sizeof(joystick_input));
  9652  0004DC  0E01               	movlw	1
  9653  0004DE  6E42               	movwf	USBTransferOnePacket@dir,c
  9654  0004E0  0E00               	movlw	0
  9655  0004E2  6E43               	movwf	USBTransferOnePacket@data,c
  9656  0004E4  0E05               	movlw	5
  9657  0004E6  6E44               	movwf	USBTransferOnePacket@data+1,c
  9658  0004E8  0E0C               	movlw	12
  9659  0004EA  6E45               	movwf	USBTransferOnePacket@len,c
  9660  0004EC  0E01               	movlw	1
  9661  0004EE  ECCD  F005         	call	_USBTransferOnePacket
  9662  0004F2  C042  F074         	movff	?_USBTransferOnePacket,_lastTransmission
  9663  0004F6  C043  F075         	movff	?_USBTransferOnePacket+1,_lastTransmission+1
  9664  0004FA                     l776:
  9665                           
  9666                           ;app_device_joystick.c: 450: }
  9667                           ;app_device_joystick.c: 451: if(!Buttons_Pressed)
  9668  0004FA  501B               	movf	_Buttons_Pressed,w,c
  9669  0004FC  A4D8               	btfss	status,2,c
  9670  0004FE  0012               	return	
  9671                           
  9672                           ;app_device_joystick.c: 452: {
  9673                           ;app_device_joystick.c: 456: joystick_input.val[0] = 0x00;
  9674  000500  0E00               	movlw	0
  9675  000502  0105               	movlb	5	; () banked
  9676  000504  6F00               	movwf	0,b
  9677                           
  9678                           ;app_device_joystick.c: 457: joystick_input.val[1] = 0x00;
  9679  000506  0E00               	movlw	0
  9680  000508  6F01               	movwf	1,b
  9681                           
  9682                           ;app_device_joystick.c: 460: joystick_input.val[2] = 0x08;
  9683  00050A  0E08               	movlw	8
  9684  00050C  6F02               	movwf	2,b
  9685                           
  9686                           ;app_device_joystick.c: 463: joystick_input.val[3] = 0x80;
  9687  00050E  0E80               	movlw	128
  9688  000510  6F03               	movwf	3,b
  9689                           
  9690                           ;app_device_joystick.c: 464: joystick_input.val[4] = 0x80;
  9691  000512  0E80               	movlw	128
  9692  000514  6F04               	movwf	4,b
  9693                           
  9694                           ;app_device_joystick.c: 465: joystick_input.val[5] = 0x80;
  9695  000516  0E80               	movlw	128
  9696  000518  6F05               	movwf	5,b
  9697                           
  9698                           ;app_device_joystick.c: 466: joystick_input.val[6] = 0x80;
  9699  00051A  0E80               	movlw	128
  9700  00051C  6F06               	movwf	6,b
  9701                           
  9702                           ; BSR set to: 5
  9703                           ;app_device_joystick.c: 470: joystick_input.members.analog_stick.X = WHEEL_Test(WHEEL_W1
      +                          );
  9704  00051E  0E01               	movlw	1
  9705  000520  EC82  F00C         	call	_WHEEL_Test
  9706  000524  6E4A               	movwf	??_APP_DeviceJoystickTasks& (0+255),c
  9707  000526  504A               	movf	??_APP_DeviceJoystickTasks,w,c
  9708  000528  0105               	movlb	5	; () banked
  9709  00052A  6F04               	movwf	4,b
  9710  00052C  6B05               	clrf	5,b
  9711                           
  9712                           ; BSR set to: 5
  9713                           ;app_device_joystick.c: 474: lastTransmission = USBTransferOnePacket(1,1,(uint8_t*)&joys
      +                          tick_input,sizeof(joystick_input));
  9714  00052E  0E01               	movlw	1
  9715  000530  6E42               	movwf	USBTransferOnePacket@dir,c
  9716  000532  0E00               	movlw	0
  9717  000534  6E43               	movwf	USBTransferOnePacket@data,c
  9718  000536  0E05               	movlw	5
  9719  000538  6E44               	movwf	USBTransferOnePacket@data+1,c
  9720  00053A  0E0C               	movlw	12
  9721  00053C  6E45               	movwf	USBTransferOnePacket@len,c
  9722  00053E  0E01               	movlw	1
  9723  000540  ECCD  F005         	call	_USBTransferOnePacket
  9724  000544  C042  F074         	movff	?_USBTransferOnePacket,_lastTransmission
  9725  000548  C043  F075         	movff	?_USBTransferOnePacket+1,_lastTransmission+1
  9726  00054C  0012               	return	
  9727  00054E                     __end_of_APP_DeviceJoystickTasks:
  9728                           	opt stack 0
  9729                           tosu	equ	0xFFF
  9730                           tosh	equ	0xFFE
  9731                           tosl	equ	0xFFD
  9732                           pclath	equ	0xFFA
  9733                           tblptru	equ	0xFF8
  9734                           tblptrh	equ	0xFF7
  9735                           tblptrl	equ	0xFF6
  9736                           tablat	equ	0xFF5
  9737                           prodh	equ	0xFF4
  9738                           prodl	equ	0xFF3
  9739                           indf0	equ	0xFEF
  9740                           postinc0	equ	0xFEE
  9741                           fsr0h	equ	0xFEA
  9742                           fsr0l	equ	0xFE9
  9743                           wreg	equ	0xFE8
  9744                           indf1	equ	0xFE7
  9745                           fsr1h	equ	0xFE2
  9746                           fsr1l	equ	0xFE1
  9747                           indf2	equ	0xFDF
  9748                           postinc2	equ	0xFDE
  9749                           postdec2	equ	0xFDD
  9750                           plusw2	equ	0xFDB
  9751                           fsr2h	equ	0xFDA
  9752                           fsr2l	equ	0xFD9
  9753                           status	equ	0xFD8
  9754                           
  9755 ;; *************** function _WHEEL_Test *****************
  9756 ;; Defined at:
  9757 ;;		line 138 in file "C:/Users/kyle.marshall/MPLABXProjects/USB_FFB_Wheel.X/framework/usb/inc/wheel.c"
  9758 ;; Parameters:    Size  Location     Type
  9759 ;;  wheel           1    wreg     enum E5758
  9760 ;; Auto vars:     Size  Location     Type
  9761 ;;  wheel           1   18[COMRAM] enum E5758
  9762 ;; Return value:  Size  Location     Type
  9763 ;;                  1    wreg      unsigned char 
  9764 ;; Registers used:
  9765 ;;		wreg, status,2, status,0
  9766 ;; Tracked objects:
  9767 ;;		On entry : 0/0
  9768 ;;		On exit  : 0/0
  9769 ;;		Unchanged: 0/0
  9770 ;; Data sizes:     COMRAM   BANK0   BANK1   BANK2   BANK3   BANK4   BANK5   BANK6   BANK7
  9771 ;;      Params:         0       0       0       0       0       0       0       0       0
  9772 ;;      Locals:         1       0       0       0       0       0       0       0       0
  9773 ;;      Temps:          0       0       0       0       0       0       0       0       0
  9774 ;;      Totals:         1       0       0       0       0       0       0       0       0
  9775 ;;Total ram usage:        1 bytes
  9776 ;; Hardware stack levels used:    1
  9777 ;; Hardware stack levels required when called:    1
  9778 ;; This function calls:
  9779 ;;		Nothing
  9780 ;; This function is called by:
  9781 ;;		_APP_DeviceJoystickTasks
  9782 ;; This function uses a non-reentrant model
  9783 ;;
  9784                           
  9785                           	psect	text38
  9786  001904                     __ptext38:
  9787                           	opt stack 0
  9788  001904                     _WHEEL_Test:
  9789                           	opt stack 28
  9790                           
  9791                           ;incstack = 0
  9792                           ;WHEEL_Test@wheel stored from wreg
  9793  001904  6E42               	movwf	WHEEL_Test@wheel,c
  9794                           
  9795                           ;wheel.c: 140: static uint16_t count = 0;
  9796                           ;wheel.c: 141: static bool direction = 1;
  9797                           ;wheel.c: 143: switch(wheel)
  9798  001906  D021               	goto	l864
  9799  001908                     
  9800                           ;wheel.c: 146: if(direction)
  9801  001908  504C               	movf	WHEEL_Test@direction,w,c
  9802  00190A  B4D8               	btfsc	status,2,c
  9803  00190C  D00D               	goto	l866
  9804                           
  9805                           ;wheel.c: 147: {
  9806                           ;wheel.c: 148: if(count < 255)
  9807  00190E  5014               	movf	WHEEL_Test@count+1,w,c
  9808  001910  E105               	bnz	l3947
  9809  001912  2813               	incf	WHEEL_Test@count,w,c
  9810  001914  B0D8               	btfsc	status,0,c
  9811  001916  D002               	goto	l867
  9812                           
  9813                           ;wheel.c: 149: {
  9814                           ;wheel.c: 150: count++;
  9815  001918  4A13               	infsnz	WHEEL_Test@count,f,c
  9816  00191A  2A14               	incf	WHEEL_Test@count+1,f,c
  9817  00191C                     l867:
  9818  00191C                     l3947:
  9819                           
  9820                           ;wheel.c: 152: }
  9821                           ;wheel.c: 153: if(count == 255)
  9822  00191C  2813               	incf	WHEEL_Test@count,w,c
  9823  00191E  1014               	iorwf	WHEEL_Test@count+1,w,c
  9824  001920  A4D8               	btfss	status,2,c
  9825  001922  D01A               	goto	l873
  9826                           
  9827                           ;wheel.c: 154: {
  9828                           ;wheel.c: 155: direction = 0;
  9829  001924  0E00               	movlw	0
  9830  001926  D00F               	goto	L14
  9831  001928                     l866:
  9832                           
  9833                           ;wheel.c: 158: else if(!direction)
  9834  001928  504C               	movf	WHEEL_Test@direction,w,c
  9835  00192A  A4D8               	btfss	status,2,c
  9836  00192C  D015               	goto	l873
  9837                           
  9838                           ;wheel.c: 159: {
  9839                           ;wheel.c: 160: if(count > 0)
  9840  00192E  5013               	movf	WHEEL_Test@count,w,c
  9841  001930  1014               	iorwf	WHEEL_Test@count+1,w,c
  9842  001932  B4D8               	btfsc	status,2,c
  9843  001934  D003               	goto	l871
  9844                           
  9845                           ;wheel.c: 161: {
  9846                           ;wheel.c: 162: count--;
  9847  001936  0613               	decf	WHEEL_Test@count,f,c
  9848  001938  A0D8               	btfss	status,0,c
  9849  00193A  0614               	decf	WHEEL_Test@count+1,f,c
  9850  00193C                     l871:
  9851                           
  9852                           ;wheel.c: 164: }
  9853                           ;wheel.c: 165: if(count == 0)
  9854  00193C  5013               	movf	WHEEL_Test@count,w,c
  9855  00193E  1014               	iorwf	WHEEL_Test@count+1,w,c
  9856  001940  A4D8               	btfss	status,2,c
  9857  001942  D00A               	goto	l873
  9858                           
  9859                           ;wheel.c: 166: {
  9860                           ;wheel.c: 167: direction = 1;
  9861  001944  0E01               	movlw	1
  9862  001946                     L14:
  9863  001946  6E4C               	movwf	WHEEL_Test@direction,c
  9864                           
  9865                           ;wheel.c: 174: }
  9866                           
  9867                           ;wheel.c: 173: break;
  9868                           
  9869                           ;wheel.c: 172: case WHEEL_NONE:
  9870                           
  9871                           ;wheel.c: 168: }
  9872                           ;wheel.c: 169: }
  9873                           ;wheel.c: 170: break;
  9874  001948  D007               	goto	l873
  9875  00194A                     l864:
  9876  00194A  5042               	movf	WHEEL_Test@wheel,w,c
  9877                           
  9878                           ; Switch size 1, requested type "space"
  9879                           ; Number of cases is 2, Range of values is 0 to 1
  9880                           ; switch strategies available:
  9881                           ; Name         Instructions Cycles
  9882                           ; simple_byte            7     4 (average)
  9883                           ;	Chosen strategy is simple_byte
  9884  00194C  0A00               	xorlw	0	; case 0
  9885  00194E  B4D8               	btfsc	status,2,c
  9886  001950  D003               	goto	l873
  9887  001952  0A01               	xorlw	1	; case 1
  9888  001954  B4D8               	btfsc	status,2,c
  9889  001956  D7D8               	goto	l865
  9890  001958                     l873:
  9891                           
  9892                           ;wheel.c: 175: return count;
  9893  001958  5013               	movf	WHEEL_Test@count,w,c
  9894  00195A  0012               	return	
  9895  00195C                     __end_of_WHEEL_Test:
  9896                           	opt stack 0
  9897                           tosu	equ	0xFFF
  9898                           tosh	equ	0xFFE
  9899                           tosl	equ	0xFFD
  9900                           pclath	equ	0xFFA
  9901                           tblptru	equ	0xFF8
  9902                           tblptrh	equ	0xFF7
  9903                           tblptrl	equ	0xFF6
  9904                           tablat	equ	0xFF5
  9905                           prodh	equ	0xFF4
  9906                           prodl	equ	0xFF3
  9907                           indf0	equ	0xFEF
  9908                           postinc0	equ	0xFEE
  9909                           fsr0h	equ	0xFEA
  9910                           fsr0l	equ	0xFE9
  9911                           wreg	equ	0xFE8
  9912                           indf1	equ	0xFE7
  9913                           fsr1h	equ	0xFE2
  9914                           fsr1l	equ	0xFE1
  9915                           indf2	equ	0xFDF
  9916                           postinc2	equ	0xFDE
  9917                           postdec2	equ	0xFDD
  9918                           plusw2	equ	0xFDB
  9919                           fsr2h	equ	0xFDA
  9920                           fsr2l	equ	0xFD9
  9921                           status	equ	0xFD8
  9922                           
  9923 ;; *************** function _USBTransferOnePacket *****************
  9924 ;; Defined at:
  9925 ;;		line 1002 in file "../../../../../../framework/usb/src/usb_device.c"
  9926 ;; Parameters:    Size  Location     Type
  9927 ;;  ep              1    wreg     unsigned char 
  9928 ;;  dir             1   18[COMRAM] unsigned char 
  9929 ;;  data            2   19[COMRAM] PTR unsigned char 
  9930 ;;		 -> joystick_input(12), 
  9931 ;;  len             1   21[COMRAM] unsigned char 
  9932 ;; Auto vars:     Size  Location     Type
  9933 ;;  ep              1    0[BANK0 ] unsigned char 
  9934 ;;  handle          2    1[BANK0 ] PTR volatile struct __BD
  9935 ;;		 -> RAM(2047), NULL(0), BDT(32), 
  9936 ;; Return value:  Size  Location     Type
  9937 ;;                  2   18[COMRAM] PTR void 
  9938 ;; Registers used:
  9939 ;;		wreg, fsr2l, fsr2h, status,2, status,0, prodl, prodh
  9940 ;; Tracked objects:
  9941 ;;		On entry : 0/0
  9942 ;;		On exit  : 0/0
  9943 ;;		Unchanged: 0/0
  9944 ;; Data sizes:     COMRAM   BANK0   BANK1   BANK2   BANK3   BANK4   BANK5   BANK6   BANK7
  9945 ;;      Params:         4       0       0       0       0       0       0       0       0
  9946 ;;      Locals:         0       3       0       0       0       0       0       0       0
  9947 ;;      Temps:          4       0       0       0       0       0       0       0       0
  9948 ;;      Totals:         8       3       0       0       0       0       0       0       0
  9949 ;;Total ram usage:       11 bytes
  9950 ;; Hardware stack levels used:    1
  9951 ;; Hardware stack levels required when called:    1
  9952 ;; This function calls:
  9953 ;;		Nothing
  9954 ;; This function is called by:
  9955 ;;		_APP_DeviceJoystickTasks
  9956 ;; This function uses a non-reentrant model
  9957 ;;
  9958                           
  9959                           	psect	text39
  9960  000B9A                     __ptext39:
  9961                           	opt stack 0
  9962  000B9A                     _USBTransferOnePacket:
  9963                           	opt stack 28
  9964                           
  9965                           ;incstack = 0
  9966                           ;USBTransferOnePacket@ep stored from wreg
  9967  000B9A  0100               	movlb	0	; () banked
  9968  000B9C  6FC6               	movwf	USBTransferOnePacket@ep& (0+255),b
  9969                           
  9970                           ;usb_device.c: 1004: volatile BDT_ENTRY* handle;
  9971                           ;usb_device.c: 1007: if(dir != 0)
  9972  000B9E  5042               	movf	USBTransferOnePacket@dir,w,c
  9973  000BA0  B4D8               	btfsc	status,2,c
  9974  000BA2  D008               	goto	l287
  9975                           
  9976                           ;usb_device.c: 1008: {
  9977                           ;usb_device.c: 1010: handle = pBDTEntryIn[ep];
  9978  000BA4  0100               	movlb	0	; () banked
  9979  000BA6  51C6               	movf	USBTransferOnePacket@ep& (0+255),w,b
  9980  000BA8  0D02               	mullw	2
  9981  000BAA  0E0F               	movlw	low _pBDTEntryIn
  9982  000BAC  24F3               	addwf	prodl,w,c
  9983  000BAE  6ED9               	movwf	fsr2l,c
  9984  000BB0  0E00               	movlw	high _pBDTEntryIn
  9985  000BB2  D007               	goto	L15
  9986  000BB4                     l287:
  9987                           
  9988                           ;usb_device.c: 1012: else
  9989                           ;usb_device.c: 1013: {
  9990                           ;usb_device.c: 1015: handle = pBDTEntryOut[ep];
  9991                           
  9992                           ; BSR set to: 0
  9993  000BB4  0100               	movlb	0	; () banked
  9994  000BB6  51C6               	movf	USBTransferOnePacket@ep& (0+255),w,b
  9995  000BB8  0D02               	mullw	2
  9996  000BBA  0E70               	movlw	low _pBDTEntryOut
  9997  000BBC  24F3               	addwf	prodl,w,c
  9998  000BBE  6ED9               	movwf	fsr2l,c
  9999  000BC0  0E00               	movlw	high _pBDTEntryOut
 10000  000BC2                     L15:
 10001  000BC2  20F4               	addwfc	prodh,w,c
 10002  000BC4  6EDA               	movwf	fsr2h,c
 10003  000BC6  CFDE F0C7          	movff	postinc2,USBTransferOnePacket@handle
 10004  000BCA  CFDD F0C8          	movff	postdec2,USBTransferOnePacket@handle+1
 10005                           
 10006                           ; BSR set to: 0
 10007                           ;usb_device.c: 1016: }
 10008                           ;usb_device.c: 1020: if(handle == 0)
 10009                           
 10010                           ; BSR set to: 0
 10011  000BCE  51C7               	movf	USBTransferOnePacket@handle& (0+255),w,b
 10012  000BD0  11C8               	iorwf	(USBTransferOnePacket@handle+1)& (0+255),w,b
 10013  000BD2  A4D8               	btfss	status,2,c
 10014  000BD4  D005               	goto	l289
 10015                           
 10016                           ; BSR set to: 0
 10017                           ;usb_device.c: 1021: {
 10018                           ;usb_device.c: 1022: return 0;
 10019  000BD6  0E00               	movlw	0
 10020  000BD8  6E42               	movwf	?_USBTransferOnePacket,c
 10021  000BDA  0E00               	movlw	0
 10022  000BDC  6E43               	movwf	?_USBTransferOnePacket+1,c
 10023                           
 10024                           ; BSR set to: 0
 10025  000BDE  0012               	return	
 10026  000BE0                     l289:
 10027                           
 10028                           ; BSR set to: 0
 10029                           ;usb_device.c: 1023: }
 10030                           ;usb_device.c: 1036: handle->ADR = ((uint16_t)(data));
 10031                           
 10032                           ; BSR set to: 0
 10033  000BE0  EE20 F002          	lfsr	2,2
 10034  000BE4  51C7               	movf	USBTransferOnePacket@handle& (0+255),w,b
 10035  000BE6  26D9               	addwf	fsr2l,f,c
 10036  000BE8  51C8               	movf	(USBTransferOnePacket@handle+1)& (0+255),w,b
 10037  000BEA  22DA               	addwfc	fsr2h,f,c
 10038  000BEC  C043  FFDE         	movff	USBTransferOnePacket@data,postinc2
 10039  000BF0  C044  FFDD         	movff	USBTransferOnePacket@data+1,postdec2
 10040                           
 10041                           ;usb_device.c: 1037: handle->CNT = len;
 10042  000BF4  EE20 F001          	lfsr	2,1
 10043  000BF8  51C7               	movf	USBTransferOnePacket@handle& (0+255),w,b
 10044  000BFA  26D9               	addwf	fsr2l,f,c
 10045  000BFC  51C8               	movf	(USBTransferOnePacket@handle+1)& (0+255),w,b
 10046  000BFE  22DA               	addwfc	fsr2h,f,c
 10047  000C00  C045  FFDF         	movff	USBTransferOnePacket@len,indf2
 10048                           
 10049                           ; BSR set to: 0
 10050                           ;usb_device.c: 1038: handle->STAT.Val &= 0x40;
 10051  000C04  C0C7  FFD9         	movff	USBTransferOnePacket@handle,fsr2l
 10052  000C08  C0C8  FFDA         	movff	USBTransferOnePacket@handle+1,fsr2h
 10053  000C0C  0E40               	movlw	64
 10054  000C0E  16DF               	andwf	indf2,f,c
 10055                           
 10056                           ; BSR set to: 0
 10057                           ;usb_device.c: 1039: handle->STAT.Val |= (0x08 & 0x08);
 10058  000C10  C0C7  FFD9         	movff	USBTransferOnePacket@handle,fsr2l
 10059  000C14  C0C8  FFDA         	movff	USBTransferOnePacket@handle+1,fsr2h
 10060  000C18  0E00               	movlw	0
 10061  000C1A  86DB               	bsf	plusw2,3,c
 10062                           
 10063                           ; BSR set to: 0
 10064                           ;usb_device.c: 1040: handle->STAT.Val |= 0x80;
 10065  000C1C  C0C7  FFD9         	movff	USBTransferOnePacket@handle,fsr2l
 10066  000C20  C0C8  FFDA         	movff	USBTransferOnePacket@handle+1,fsr2h
 10067  000C24  0E00               	movlw	0
 10068  000C26  8EDB               	bsf	plusw2,7,c
 10069                           
 10070                           ; BSR set to: 0
 10071                           ;usb_device.c: 1043: if(dir != 0)
 10072  000C28  5042               	movf	USBTransferOnePacket@dir,w,c
 10073  000C2A  B4D8               	btfsc	status,2,c
 10074  000C2C  D018               	goto	l291
 10075                           
 10076                           ; BSR set to: 0
 10077                           ;usb_device.c: 1044: {
 10078                           ;usb_device.c: 1046: pBDTEntryIn[ep] = (BDT_ENTRY*)(((uintptr_t)pBDTEntryIn[ep]) ^ 0x000
      +                          4);
 10079  000C2E  51C6               	movf	USBTransferOnePacket@ep& (0+255),w,b
 10080  000C30  0D02               	mullw	2
 10081  000C32  0E0F               	movlw	low _pBDTEntryIn
 10082  000C34  24F3               	addwf	prodl,w,c
 10083  000C36  6ED9               	movwf	fsr2l,c
 10084  000C38  0E00               	movlw	high _pBDTEntryIn
 10085  000C3A  20F4               	addwfc	prodh,w,c
 10086  000C3C  6EDA               	movwf	fsr2h,c
 10087  000C3E  CFDE F046          	movff	postinc2,??_USBTransferOnePacket
 10088  000C42  CFDD F047          	movff	postdec2,??_USBTransferOnePacket+1
 10089  000C46  0E04               	movlw	4
 10090  000C48  1846               	xorwf	??_USBTransferOnePacket,w,c
 10091  000C4A  6E48               	movwf	(??_USBTransferOnePacket+2)& (0+255),c
 10092  000C4C  5047               	movf	??_USBTransferOnePacket+1,w,c
 10093  000C4E  6E49               	movwf	(??_USBTransferOnePacket+3)& (0+255),c
 10094  000C50  51C6               	movf	USBTransferOnePacket@ep& (0+255),w,b
 10095  000C52  0D02               	mullw	2
 10096  000C54  0E0F               	movlw	low _pBDTEntryIn
 10097  000C56  24F3               	addwf	prodl,w,c
 10098  000C58  6ED9               	movwf	fsr2l,c
 10099  000C5A  0E00               	movlw	high _pBDTEntryIn
 10100  000C5C  D017               	goto	L16
 10101  000C5E                     l291:
 10102                           
 10103                           ; BSR set to: 0
 10104                           ;usb_device.c: 1048: else
 10105                           ;usb_device.c: 1049: {
 10106                           ;usb_device.c: 1051: pBDTEntryOut[ep] = (BDT_ENTRY*)(((uintptr_t)pBDTEntryOut[ep]) ^ 0x0
      +                          004);
 10107                           
 10108                           ; BSR set to: 0
 10109  000C5E  51C6               	movf	USBTransferOnePacket@ep& (0+255),w,b
 10110  000C60  0D02               	mullw	2
 10111  000C62  0E70               	movlw	low _pBDTEntryOut
 10112  000C64  24F3               	addwf	prodl,w,c
 10113  000C66  6ED9               	movwf	fsr2l,c
 10114  000C68  0E00               	movlw	high _pBDTEntryOut
 10115  000C6A  20F4               	addwfc	prodh,w,c
 10116  000C6C  6EDA               	movwf	fsr2h,c
 10117  000C6E  CFDE F046          	movff	postinc2,??_USBTransferOnePacket
 10118  000C72  CFDD F047          	movff	postdec2,??_USBTransferOnePacket+1
 10119  000C76  0E04               	movlw	4
 10120  000C78  1846               	xorwf	??_USBTransferOnePacket,w,c
 10121  000C7A  6E48               	movwf	(??_USBTransferOnePacket+2)& (0+255),c
 10122  000C7C  5047               	movf	??_USBTransferOnePacket+1,w,c
 10123  000C7E  6E49               	movwf	(??_USBTransferOnePacket+3)& (0+255),c
 10124  000C80  51C6               	movf	USBTransferOnePacket@ep& (0+255),w,b
 10125  000C82  0D02               	mullw	2
 10126  000C84  0E70               	movlw	low _pBDTEntryOut
 10127  000C86  24F3               	addwf	prodl,w,c
 10128  000C88  6ED9               	movwf	fsr2l,c
 10129  000C8A  0E00               	movlw	high _pBDTEntryOut
 10130  000C8C                     L16:
 10131  000C8C  20F4               	addwfc	prodh,w,c
 10132  000C8E  6EDA               	movwf	fsr2h,c
 10133  000C90  C048  FFDE         	movff	??_USBTransferOnePacket+2,postinc2
 10134  000C94  C049  FFDD         	movff	??_USBTransferOnePacket+3,postdec2
 10135                           
 10136                           ; BSR set to: 0
 10137                           ;usb_device.c: 1052: }
 10138                           ;usb_device.c: 1053: return (void*)handle;
 10139                           
 10140                           ; BSR set to: 0
 10141  000C98  C0C7  F042         	movff	USBTransferOnePacket@handle,?_USBTransferOnePacket
 10142  000C9C  C0C8  F043         	movff	USBTransferOnePacket@handle+1,?_USBTransferOnePacket+1
 10143  000CA0  0012               	return	
 10144  000CA2                     __end_of_USBTransferOnePacket:
 10145                           	opt stack 0
 10146                           tosu	equ	0xFFF
 10147                           tosh	equ	0xFFE
 10148                           tosl	equ	0xFFD
 10149                           pclath	equ	0xFFA
 10150                           tblptru	equ	0xFF8
 10151                           tblptrh	equ	0xFF7
 10152                           tblptrl	equ	0xFF6
 10153                           tablat	equ	0xFF5
 10154                           prodh	equ	0xFF4
 10155                           prodl	equ	0xFF3
 10156                           indf0	equ	0xFEF
 10157                           postinc0	equ	0xFEE
 10158                           fsr0h	equ	0xFEA
 10159                           fsr0l	equ	0xFE9
 10160                           wreg	equ	0xFE8
 10161                           indf1	equ	0xFE7
 10162                           fsr1h	equ	0xFE2
 10163                           fsr1l	equ	0xFE1
 10164                           indf2	equ	0xFDF
 10165                           postinc2	equ	0xFDE
 10166                           postdec2	equ	0xFDD
 10167                           plusw2	equ	0xFDB
 10168                           fsr2h	equ	0xFDA
 10169                           fsr2l	equ	0xFD9
 10170                           status	equ	0xFD8
 10171                           
 10172 ;; *************** function _PEDAL_Position *****************
 10173 ;; Defined at:
 10174 ;;		line 179 in file "C:/Users/kyle.marshall/MPLABXProjects/USB_FFB_Wheel.X/framework/usb/inc/wheel.c"
 10175 ;; Parameters:    Size  Location     Type
 10176 ;;  pedal           1    wreg     enum E5762
 10177 ;; Auto vars:     Size  Location     Type
 10178 ;;  pedal           1   19[COMRAM] enum E5762
 10179 ;; Return value:  Size  Location     Type
 10180 ;;                  1    wreg      unsigned char 
 10181 ;; Registers used:
 10182 ;;		wreg, status,2, status,0
 10183 ;; Tracked objects:
 10184 ;;		On entry : 0/0
 10185 ;;		On exit  : 0/0
 10186 ;;		Unchanged: 0/0
 10187 ;; Data sizes:     COMRAM   BANK0   BANK1   BANK2   BANK3   BANK4   BANK5   BANK6   BANK7
 10188 ;;      Params:         0       0       0       0       0       0       0       0       0
 10189 ;;      Locals:         1       0       0       0       0       0       0       0       0
 10190 ;;      Temps:          1       0       0       0       0       0       0       0       0
 10191 ;;      Totals:         2       0       0       0       0       0       0       0       0
 10192 ;;Total ram usage:        2 bytes
 10193 ;; Hardware stack levels used:    1
 10194 ;; Hardware stack levels required when called:    1
 10195 ;; This function calls:
 10196 ;;		Nothing
 10197 ;; This function is called by:
 10198 ;;		_APP_DeviceJoystickTasks
 10199 ;; This function uses a non-reentrant model
 10200 ;;
 10201                           
 10202                           	psect	text40
 10203  001838                     __ptext40:
 10204                           	opt stack 0
 10205  001838                     _PEDAL_Position:
 10206                           	opt stack 28
 10207                           
 10208                           ; BSR set to: 0
 10209                           ;incstack = 0
 10210                           ;PEDAL_Position@pedal stored from wreg
 10211  001838  6E43               	movwf	PEDAL_Position@pedal,c
 10212                           
 10213                           ;wheel.c: 181: switch(pedal)
 10214  00183A  D02A               	goto	l878
 10215  00183C                     
 10216                           ;wheel.c: 184: if (BREAK_Type == 0)
 10217  00183C  501D               	movf	_BREAK_Type,w,c
 10218  00183E  A4D8               	btfss	status,2,c
 10219  001840  D011               	goto	l3983
 10220                           
 10221                           ;wheel.c: 185: {
 10222                           ;wheel.c: 186: ADCON0bits.CHS = 0011;
 10223  001842  84C2               	bsf	4034,2,c	;volatile
 10224  001844  96C2               	bcf	4034,3,c	;volatile
 10225  001846  98C2               	bcf	4034,4,c	;volatile
 10226  001848  8AC2               	bsf	4034,5,c	;volatile
 10227  00184A  9CC2               	bcf	4034,6,c	;volatile
 10228                           
 10229                           ;wheel.c: 187: _delay((unsigned long)((2)*(20000000/4000.0)));
 10230  00184C  0E0D               	movlw	13
 10231  00184E  6E42               	movwf	??_PEDAL_Position& (0+255),c
 10232  001850  0EFC               	movlw	252
 10233  001852                     u5527:
 10234  001852  2EE8               	decfsz	wreg,f,c
 10235  001854  D7FE               	bra	u5527
 10236  001856  2E42               	decfsz	??_PEDAL_Position& (0+255),f,c
 10237  001858  D7FC               	bra	u5527
 10238                           
 10239                           ;wheel.c: 188: GO_nDONE = 1;
 10240  00185A  82C2               	bsf	4034,1,c	;volatile
 10241  00185C  B2C2               	btfsc	4034,1,c	;volatile
 10242  00185E  D7FE               	goto	l882
 10243                           
 10244                           ;wheel.c: 190: return ((ADRESH<<8)+ADRESL);
 10245  001860  50C3               	movf	4035,w,c	;volatile
 10246  001862  0012               	return	
 10247  001864                     l3983:
 10248                           
 10249                           ;wheel.c: 198: if (CLUTCH_Type == 0)
 10250                           
 10251                           ;wheel.c: 195: }
 10252                           ;wheel.c: 197: case PEDAL_CLUTCH:
 10253                           
 10254                           ;wheel.c: 193: {
 10255                           
 10256                           ;wheel.c: 191: }
 10257  001864  501C               	movf	_CLUTCH_Type,w,c
 10258  001866  A4D8               	btfss	status,2,c
 10259  001868  D011               	goto	l3999
 10260                           
 10261                           ;wheel.c: 199: {
 10262                           ;wheel.c: 200: ADCON0bits.CHS = 0b0100;
 10263  00186A  94C2               	bcf	4034,2,c	;volatile
 10264  00186C  96C2               	bcf	4034,3,c	;volatile
 10265  00186E  88C2               	bsf	4034,4,c	;volatile
 10266  001870  9AC2               	bcf	4034,5,c	;volatile
 10267  001872  9CC2               	bcf	4034,6,c	;volatile
 10268                           
 10269                           ;wheel.c: 201: _delay((unsigned long)((2)*(20000000/4000.0)));
 10270  001874  0E0D               	movlw	13
 10271  001876  6E42               	movwf	??_PEDAL_Position& (0+255),c
 10272  001878  0EFC               	movlw	252
 10273  00187A                     u5537:
 10274  00187A  2EE8               	decfsz	wreg,f,c
 10275  00187C  D7FE               	bra	u5537
 10276  00187E  2E42               	decfsz	??_PEDAL_Position& (0+255),f,c
 10277  001880  D7FC               	bra	u5537
 10278                           
 10279                           ;wheel.c: 202: GO_nDONE = 1;
 10280  001882  82C2               	bsf	4034,1,c	;volatile
 10281  001884  B2C2               	btfsc	4034,1,c	;volatile
 10282  001886  D7FE               	goto	l890
 10283                           
 10284                           ;wheel.c: 204: return ((ADRESH<<8)+ADRESL);
 10285  001888  50C3               	movf	4035,w,c	;volatile
 10286  00188A  0012               	return	
 10287  00188C                     l3999:
 10288                           
 10289                           ;wheel.c: 212: return 128;
 10290                           
 10291                           ;wheel.c: 209: }
 10292                           ;wheel.c: 211: case WHEEL_NONE:
 10293                           
 10294                           ;wheel.c: 207: {
 10295                           
 10296                           ;wheel.c: 205: }
 10297  00188C  0E80               	movlw	128
 10298  00188E  0012               	return	
 10299  001890                     l878:
 10300  001890  5043               	movf	PEDAL_Position@pedal,w,c
 10301                           
 10302                           ; Switch size 1, requested type "space"
 10303                           ; Number of cases is 3, Range of values is 0 to 2
 10304                           ; switch strategies available:
 10305                           ; Name         Instructions Cycles
 10306                           ; simple_byte           10     6 (average)
 10307                           ;	Chosen strategy is simple_byte
 10308  001892  0A00               	xorlw	0	; case 0
 10309  001894  B4D8               	btfsc	status,2,c
 10310  001896  D7FA               	goto	l3999
 10311  001898  0A01               	xorlw	1	; case 1
 10312  00189A  B4D8               	btfsc	status,2,c
 10313  00189C  D7CF               	goto	l879
 10314  00189E  0A03               	xorlw	3	; case 2
 10315  0018A0  B4D8               	btfsc	status,2,c
 10316  0018A2  D7E0               	goto	l3983
 10317                           
 10318                           ;wheel.c: 215: return 128;
 10319  0018A4  0E80               	movlw	128
 10320  0018A6  0012               	return	
 10321  0018A8                     __end_of_PEDAL_Position:
 10322                           	opt stack 0
 10323                           tosu	equ	0xFFF
 10324                           tosh	equ	0xFFE
 10325                           tosl	equ	0xFFD
 10326                           pclath	equ	0xFFA
 10327                           tblptru	equ	0xFF8
 10328                           tblptrh	equ	0xFF7
 10329                           tblptrl	equ	0xFF6
 10330                           tablat	equ	0xFF5
 10331                           prodh	equ	0xFF4
 10332                           prodl	equ	0xFF3
 10333                           indf0	equ	0xFEF
 10334                           postinc0	equ	0xFEE
 10335                           fsr0h	equ	0xFEA
 10336                           fsr0l	equ	0xFE9
 10337                           wreg	equ	0xFE8
 10338                           indf1	equ	0xFE7
 10339                           fsr1h	equ	0xFE2
 10340                           fsr1l	equ	0xFE1
 10341                           indf2	equ	0xFDF
 10342                           postinc2	equ	0xFDE
 10343                           postdec2	equ	0xFDD
 10344                           plusw2	equ	0xFDB
 10345                           fsr2h	equ	0xFDA
 10346                           fsr2l	equ	0xFD9
 10347                           status	equ	0xFD8
 10348                           
 10349 ;; *************** function _BUTTON_IsPressed *****************
 10350 ;; Defined at:
 10351 ;;		line 94 in file "../../../../../../bsp/picdem_fs_usb_k50/buttons.c"
 10352 ;; Parameters:    Size  Location     Type
 10353 ;;  button          1    wreg     enum E5727
 10354 ;; Auto vars:     Size  Location     Type
 10355 ;;  button          1   18[COMRAM] enum E5727
 10356 ;; Return value:  Size  Location     Type
 10357 ;;                  1    wreg      unsigned char 
 10358 ;; Registers used:
 10359 ;;		wreg, status,2, status,0
 10360 ;; Tracked objects:
 10361 ;;		On entry : 0/0
 10362 ;;		On exit  : 0/0
 10363 ;;		Unchanged: 0/0
 10364 ;; Data sizes:     COMRAM   BANK0   BANK1   BANK2   BANK3   BANK4   BANK5   BANK6   BANK7
 10365 ;;      Params:         0       0       0       0       0       0       0       0       0
 10366 ;;      Locals:         1       0       0       0       0       0       0       0       0
 10367 ;;      Temps:          0       0       0       0       0       0       0       0       0
 10368 ;;      Totals:         1       0       0       0       0       0       0       0       0
 10369 ;;Total ram usage:        1 bytes
 10370 ;; Hardware stack levels used:    1
 10371 ;; Hardware stack levels required when called:    1
 10372 ;; This function calls:
 10373 ;;		Nothing
 10374 ;; This function is called by:
 10375 ;;		_APP_DeviceJoystickTasks
 10376 ;; This function uses a non-reentrant model
 10377 ;;
 10378                           
 10379                           	psect	text41
 10380  000CA2                     __ptext41:
 10381                           	opt stack 0
 10382  000CA2                     _BUTTON_IsPressed:
 10383                           	opt stack 28
 10384                           
 10385                           ;incstack = 0
 10386                           ;BUTTON_IsPressed@button stored from wreg
 10387  000CA2  6E42               	movwf	BUTTON_IsPressed@button,c
 10388                           
 10389                           ;buttons.c: 96: switch(button)
 10390  000CA4  D050               	goto	l15
 10391  000CA6                     l16:
 10392                           
 10393                           ;buttons.c: 99: return ( (PORTBbits.RB7 == 0) ? 1 : 0);
 10394  000CA6  BE81               	btfsc	3969,7,c	;volatile
 10395  000CA8  D002               	goto	u2920
 10396  000CAA  0E01               	movlw	1
 10397  000CAC  0012               	return	
 10398  000CAE                     u2920:
 10399  000CAE  0E00               	movlw	0
 10400  000CB0  0012               	return	
 10401  000CB2                     l18:
 10402                           
 10403                           ;buttons.c: 102: return ( (PORTBbits.RB6 == 0) ? 1 : 0);
 10404  000CB2  BC81               	btfsc	3969,6,c	;volatile
 10405  000CB4  D002               	goto	u2940
 10406  000CB6  0E01               	movlw	1
 10407  000CB8  0012               	return	
 10408  000CBA                     u2940:
 10409  000CBA  0E00               	movlw	0
 10410  000CBC  0012               	return	
 10411  000CBE                     l19:
 10412                           
 10413                           ;buttons.c: 105: return ( (PORTBbits.RB5 == 0) ? 1 : 0);
 10414  000CBE  BA81               	btfsc	3969,5,c	;volatile
 10415  000CC0  D002               	goto	u2960
 10416  000CC2  0E01               	movlw	1
 10417  000CC4  0012               	return	
 10418  000CC6                     u2960:
 10419  000CC6  0E00               	movlw	0
 10420  000CC8  0012               	return	
 10421  000CCA                     l20:
 10422                           
 10423                           ;buttons.c: 108: return ( (PORTBbits.RB4 == 0) ? 1 : 0);
 10424  000CCA  B881               	btfsc	3969,4,c	;volatile
 10425  000CCC  D002               	goto	u2980
 10426  000CCE  0E01               	movlw	1
 10427  000CD0  0012               	return	
 10428  000CD2                     u2980:
 10429  000CD2  0E00               	movlw	0
 10430  000CD4  0012               	return	
 10431  000CD6                     l21:
 10432                           
 10433                           ;buttons.c: 111: return ( (PORTBbits.RB3 == 0) ? 1 : 0);
 10434  000CD6  B681               	btfsc	3969,3,c	;volatile
 10435  000CD8  D002               	goto	u3000
 10436  000CDA  0E01               	movlw	1
 10437  000CDC  0012               	return	
 10438  000CDE                     u3000:
 10439  000CDE  0E00               	movlw	0
 10440  000CE0  0012               	return	
 10441  000CE2                     l22:
 10442                           
 10443                           ;buttons.c: 114: return ( (PORTBbits.RB2 == 0) ? 1 : 0);
 10444  000CE2  B481               	btfsc	3969,2,c	;volatile
 10445  000CE4  D002               	goto	u3020
 10446  000CE6  0E01               	movlw	1
 10447  000CE8  0012               	return	
 10448  000CEA                     u3020:
 10449  000CEA  0E00               	movlw	0
 10450  000CEC  0012               	return	
 10451  000CEE                     l23:
 10452                           
 10453                           ;buttons.c: 117: return ( (PORTBbits.RB1 == 0) ? 1 : 0);
 10454  000CEE  B281               	btfsc	3969,1,c	;volatile
 10455  000CF0  D002               	goto	u3040
 10456  000CF2  0E01               	movlw	1
 10457  000CF4  0012               	return	
 10458  000CF6                     u3040:
 10459  000CF6  0E00               	movlw	0
 10460  000CF8  0012               	return	
 10461  000CFA                     l24:
 10462                           
 10463                           ;buttons.c: 120: return ( (PORTBbits.RB0 == 0) ? 1 : 0);
 10464  000CFA  B081               	btfsc	3969,0,c	;volatile
 10465  000CFC  D002               	goto	u3060
 10466  000CFE  0E01               	movlw	1
 10467  000D00  0012               	return	
 10468  000D02                     u3060:
 10469  000D02  0E00               	movlw	0
 10470  000D04  0012               	return	
 10471  000D06                     l25:
 10472                           
 10473                           ;buttons.c: 123: return ( (PORTDbits.RD7 == 0) ? 1 : 0);
 10474  000D06  BE83               	btfsc	3971,7,c	;volatile
 10475  000D08  D002               	goto	u3080
 10476  000D0A  0E01               	movlw	1
 10477  000D0C  0012               	return	
 10478  000D0E                     u3080:
 10479  000D0E  0E00               	movlw	0
 10480  000D10  0012               	return	
 10481  000D12                     l26:
 10482                           
 10483                           ;buttons.c: 126: return ( (PORTDbits.RD6 == 0) ? 1 : 0);
 10484  000D12  BC83               	btfsc	3971,6,c	;volatile
 10485  000D14  D002               	goto	u3100
 10486  000D16  0E01               	movlw	1
 10487  000D18  0012               	return	
 10488  000D1A                     u3100:
 10489  000D1A  0E00               	movlw	0
 10490  000D1C  0012               	return	
 10491  000D1E                     l27:
 10492                           
 10493                           ;buttons.c: 129: return ( (PORTDbits.RD5 == 0) ? 1 : 0);
 10494  000D1E  BA83               	btfsc	3971,5,c	;volatile
 10495  000D20  D002               	goto	u3120
 10496  000D22  0E01               	movlw	1
 10497  000D24  0012               	return	
 10498  000D26                     u3120:
 10499  000D26  0E00               	movlw	0
 10500  000D28  0012               	return	
 10501  000D2A                     l28:
 10502                           
 10503                           ;buttons.c: 132: return ( (PORTDbits.RD4 == 0) ? 1 : 0);
 10504  000D2A  B883               	btfsc	3971,4,c	;volatile
 10505  000D2C  D002               	goto	u3140
 10506  000D2E  0E01               	movlw	1
 10507  000D30  0012               	return	
 10508  000D32                     u3140:
 10509  000D32  0E00               	movlw	0
 10510  000D34  0012               	return	
 10511  000D36                     l29:
 10512                           
 10513                           ;buttons.c: 135: return ( (PORTDbits.RD3 == 0) ? 1 : 0);
 10514  000D36  B683               	btfsc	3971,3,c	;volatile
 10515  000D38  D002               	goto	u3160
 10516  000D3A  0E01               	movlw	1
 10517  000D3C  0012               	return	
 10518  000D3E                     u3160:
 10519  000D3E  0E00               	movlw	0
 10520  000D40  0012               	return	
 10521  000D42                     
 10522                           ;buttons.c: 138: return 0;
 10523  000D42  0E00               	movlw	0
 10524  000D44  0012               	return	
 10525  000D46                     l15:
 10526  000D46  5042               	movf	BUTTON_IsPressed@button,w,c
 10527                           
 10528                           ; Switch size 1, requested type "space"
 10529                           ; Number of cases is 14, Range of values is 0 to 13
 10530                           ; switch strategies available:
 10531                           ; Name         Instructions Cycles
 10532                           ; simple_byte           43    22 (average)
 10533                           ;	Chosen strategy is simple_byte
 10534  000D48  0A00               	xorlw	0	; case 0
 10535  000D4A  B4D8               	btfsc	status,2,c
 10536  000D4C  D7FA               	goto	l30
 10537  000D4E  0A01               	xorlw	1	; case 1
 10538  000D50  B4D8               	btfsc	status,2,c
 10539  000D52  D7A9               	goto	l16
 10540  000D54  0A03               	xorlw	3	; case 2
 10541  000D56  B4D8               	btfsc	status,2,c
 10542  000D58  D7AC               	goto	l18
 10543  000D5A  0A01               	xorlw	1	; case 3
 10544  000D5C  B4D8               	btfsc	status,2,c
 10545  000D5E  D7AF               	goto	l19
 10546  000D60  0A07               	xorlw	7	; case 4
 10547  000D62  B4D8               	btfsc	status,2,c
 10548  000D64  D7B2               	goto	l20
 10549  000D66  0A01               	xorlw	1	; case 5
 10550  000D68  B4D8               	btfsc	status,2,c
 10551  000D6A  D7B5               	goto	l21
 10552  000D6C  0A03               	xorlw	3	; case 6
 10553  000D6E  B4D8               	btfsc	status,2,c
 10554  000D70  D7B8               	goto	l22
 10555  000D72  0A01               	xorlw	1	; case 7
 10556  000D74  B4D8               	btfsc	status,2,c
 10557  000D76  D7BB               	goto	l23
 10558  000D78  0A0F               	xorlw	15	; case 8
 10559  000D7A  B4D8               	btfsc	status,2,c
 10560  000D7C  D7BE               	goto	l24
 10561  000D7E  0A01               	xorlw	1	; case 9
 10562  000D80  B4D8               	btfsc	status,2,c
 10563  000D82  D7C1               	goto	l25
 10564  000D84  0A03               	xorlw	3	; case 10
 10565  000D86  B4D8               	btfsc	status,2,c
 10566  000D88  D7C4               	goto	l26
 10567  000D8A  0A01               	xorlw	1	; case 11
 10568  000D8C  B4D8               	btfsc	status,2,c
 10569  000D8E  D7C7               	goto	l27
 10570  000D90  0A07               	xorlw	7	; case 12
 10571  000D92  B4D8               	btfsc	status,2,c
 10572  000D94  D7CA               	goto	l28
 10573  000D96  0A01               	xorlw	1	; case 13
 10574  000D98  B4D8               	btfsc	status,2,c
 10575  000D9A  D7CD               	goto	l29
 10576                           
 10577                           ;buttons.c: 141: return 0;
 10578  000D9C  0E00               	movlw	0
 10579  000D9E  0012               	return	
 10580  000DA0                     __end_of_BUTTON_IsPressed:
 10581                           	opt stack 0
 10582                           tosu	equ	0xFFF
 10583                           tosh	equ	0xFFE
 10584                           tosl	equ	0xFFD
 10585                           pclath	equ	0xFFA
 10586                           tblptru	equ	0xFF8
 10587                           tblptrh	equ	0xFF7
 10588                           tblptrl	equ	0xFF6
 10589                           tablat	equ	0xFF5
 10590                           prodh	equ	0xFF4
 10591                           prodl	equ	0xFF3
 10592                           indf0	equ	0xFEF
 10593                           postinc0	equ	0xFEE
 10594                           fsr0h	equ	0xFEA
 10595                           fsr0l	equ	0xFE9
 10596                           wreg	equ	0xFE8
 10597                           indf1	equ	0xFE7
 10598                           fsr1h	equ	0xFE2
 10599                           fsr1l	equ	0xFE1
 10600                           indf2	equ	0xFDF
 10601                           postinc2	equ	0xFDE
 10602                           postdec2	equ	0xFDD
 10603                           plusw2	equ	0xFDB
 10604                           fsr2h	equ	0xFDA
 10605                           fsr2l	equ	0xFD9
 10606                           status	equ	0xFD8
 10607                           
 10608 ;; *************** function _SYS_InterruptHigh *****************
 10609 ;; Defined at:
 10610 ;;		line 112 in file "system.c"
 10611 ;; Parameters:    Size  Location     Type
 10612 ;;		None
 10613 ;; Auto vars:     Size  Location     Type
 10614 ;;		None
 10615 ;; Return value:  Size  Location     Type
 10616 ;;                  1    wreg      void 
 10617 ;; Registers used:
 10618 ;;		None
 10619 ;; Tracked objects:
 10620 ;;		On entry : 0/0
 10621 ;;		On exit  : 0/0
 10622 ;;		Unchanged: 0/0
 10623 ;; Data sizes:     COMRAM   BANK0   BANK1   BANK2   BANK3   BANK4   BANK5   BANK6   BANK7
 10624 ;;      Params:         0       0       0       0       0       0       0       0       0
 10625 ;;      Locals:         0       0       0       0       0       0       0       0       0
 10626 ;;      Temps:         18       0       0       0       0       0       0       0       0
 10627 ;;      Totals:        18       0       0       0       0       0       0       0       0
 10628 ;;Total ram usage:       18 bytes
 10629 ;; Hardware stack levels used:    1
 10630 ;; This function calls:
 10631 ;;		Nothing
 10632 ;; This function is called by:
 10633 ;;		Interrupt level 2
 10634 ;; This function uses a non-reentrant model
 10635 ;;
 10636                           
 10637                           	psect	intcode
 10638  000008                     __pintcode:
 10639                           	opt stack 0
 10640  000008                     _SYS_InterruptHigh:
 10641                           	opt stack 21
 10642                           
 10643                           ;incstack = 0
 10644  000008  824D               	bsf	btemp,1,c	;set compiler interrupt flag (level 2)
 10645  00000A  CFFA F030          	movff	pclath,??_SYS_InterruptHigh
 10646  00000E  CFFB F031          	movff	pclatu,??_SYS_InterruptHigh+1
 10647  000012  CFE9 F032          	movff	fsr0l,??_SYS_InterruptHigh+2
 10648  000016  CFEA F033          	movff	fsr0h,??_SYS_InterruptHigh+3
 10649  00001A  CFE1 F034          	movff	fsr1l,??_SYS_InterruptHigh+4
 10650  00001E  CFE2 F035          	movff	fsr1h,??_SYS_InterruptHigh+5
 10651  000022  CFD9 F036          	movff	fsr2l,??_SYS_InterruptHigh+6
 10652  000026  CFDA F037          	movff	fsr2h,??_SYS_InterruptHigh+7
 10653  00002A  CFF3 F038          	movff	prodl,??_SYS_InterruptHigh+8
 10654  00002E  CFF4 F039          	movff	prodh,??_SYS_InterruptHigh+9
 10655  000032  CFF6 F03A          	movff	tblptrl,??_SYS_InterruptHigh+10
 10656  000036  CFF7 F03B          	movff	tblptrh,??_SYS_InterruptHigh+11
 10657  00003A  CFF8 F03C          	movff	tblptru,??_SYS_InterruptHigh+12
 10658  00003E  CFF5 F03D          	movff	tablat,??_SYS_InterruptHigh+13
 10659  000042  C04D  F03E         	movff	btemp,??_SYS_InterruptHigh+14
 10660  000046  C04E  F03F         	movff	btemp+1,??_SYS_InterruptHigh+15
 10661  00004A  C04F  F040         	movff	btemp+2,??_SYS_InterruptHigh+16
 10662  00004E  C050  F041         	movff	btemp+3,??_SYS_InterruptHigh+17
 10663  000052  C041  F050         	movff	??_SYS_InterruptHigh+17,btemp+3
 10664  000056  C040  F04F         	movff	??_SYS_InterruptHigh+16,btemp+2
 10665  00005A  C03F  F04E         	movff	??_SYS_InterruptHigh+15,btemp+1
 10666  00005E  C03E  F04D         	movff	??_SYS_InterruptHigh+14,btemp
 10667  000062  C03D  FFF5         	movff	??_SYS_InterruptHigh+13,tablat
 10668  000066  C03C  FFF8         	movff	??_SYS_InterruptHigh+12,tblptru
 10669  00006A  C03B  FFF7         	movff	??_SYS_InterruptHigh+11,tblptrh
 10670  00006E  C03A  FFF6         	movff	??_SYS_InterruptHigh+10,tblptrl
 10671  000072  C039  FFF4         	movff	??_SYS_InterruptHigh+9,prodh
 10672  000076  C038  FFF3         	movff	??_SYS_InterruptHigh+8,prodl
 10673  00007A  C037  FFDA         	movff	??_SYS_InterruptHigh+7,fsr2h
 10674  00007E  C036  FFD9         	movff	??_SYS_InterruptHigh+6,fsr2l
 10675  000082  C035  FFE2         	movff	??_SYS_InterruptHigh+5,fsr1h
 10676  000086  C034  FFE1         	movff	??_SYS_InterruptHigh+4,fsr1l
 10677  00008A  C033  FFEA         	movff	??_SYS_InterruptHigh+3,fsr0h
 10678  00008E  C032  FFE9         	movff	??_SYS_InterruptHigh+2,fsr0l
 10679  000092  C031  FFFB         	movff	??_SYS_InterruptHigh+1,pclatu
 10680  000096  C030  FFFA         	movff	??_SYS_InterruptHigh,pclath
 10681  00009A  924D               	bcf	btemp,1,c	;clear compiler interrupt flag (level 2)
 10682  00009C  0011               	retfie		f
 10683  00009E                     __end_of_SYS_InterruptHigh:
 10684                           	opt stack 0
 10685                           tosu	equ	0xFFF
 10686                           tosh	equ	0xFFE
 10687                           tosl	equ	0xFFD
 10688                           pclatu	equ	0xFFB
 10689                           pclath	equ	0xFFA
 10690                           tblptru	equ	0xFF8
 10691                           tblptrh	equ	0xFF7
 10692                           tblptrl	equ	0xFF6
 10693                           tablat	equ	0xFF5
 10694                           prodh	equ	0xFF4
 10695                           prodl	equ	0xFF3
 10696                           indf0	equ	0xFEF
 10697                           postinc0	equ	0xFEE
 10698                           fsr0h	equ	0xFEA
 10699                           fsr0l	equ	0xFE9
 10700                           wreg	equ	0xFE8
 10701                           indf1	equ	0xFE7
 10702                           fsr1h	equ	0xFE2
 10703                           fsr1l	equ	0xFE1
 10704                           indf2	equ	0xFDF
 10705                           postinc2	equ	0xFDE
 10706                           postdec2	equ	0xFDD
 10707                           plusw2	equ	0xFDB
 10708                           fsr2h	equ	0xFDA
 10709                           fsr2l	equ	0xFD9
 10710                           status	equ	0xFD8
 10711                           tosu	equ	0xFFF
 10712                           tosh	equ	0xFFE
 10713                           tosl	equ	0xFFD
 10714                           pclatu	equ	0xFFB
 10715                           pclath	equ	0xFFA
 10716                           tblptru	equ	0xFF8
 10717                           tblptrh	equ	0xFF7
 10718                           tblptrl	equ	0xFF6
 10719                           tablat	equ	0xFF5
 10720                           prodh	equ	0xFF4
 10721                           prodl	equ	0xFF3
 10722                           indf0	equ	0xFEF
 10723                           postinc0	equ	0xFEE
 10724                           fsr0h	equ	0xFEA
 10725                           fsr0l	equ	0xFE9
 10726                           wreg	equ	0xFE8
 10727                           indf1	equ	0xFE7
 10728                           fsr1h	equ	0xFE2
 10729                           fsr1l	equ	0xFE1
 10730                           indf2	equ	0xFDF
 10731                           postinc2	equ	0xFDE
 10732                           postdec2	equ	0xFDD
 10733                           plusw2	equ	0xFDB
 10734                           fsr2h	equ	0xFDA
 10735                           fsr2l	equ	0xFD9
 10736                           status	equ	0xFD8
 10737                           
 10738                           	psect	rparam
 10739  0000                     tosu	equ	0xFFF
 10740                           tosh	equ	0xFFE
 10741                           tosl	equ	0xFFD
 10742                           pclatu	equ	0xFFB
 10743                           pclath	equ	0xFFA
 10744                           tblptru	equ	0xFF8
 10745                           tblptrh	equ	0xFF7
 10746                           tblptrl	equ	0xFF6
 10747                           tablat	equ	0xFF5
 10748                           prodh	equ	0xFF4
 10749                           prodl	equ	0xFF3
 10750                           indf0	equ	0xFEF
 10751                           postinc0	equ	0xFEE
 10752                           fsr0h	equ	0xFEA
 10753                           fsr0l	equ	0xFE9
 10754                           wreg	equ	0xFE8
 10755                           indf1	equ	0xFE7
 10756                           fsr1h	equ	0xFE2
 10757                           fsr1l	equ	0xFE1
 10758                           indf2	equ	0xFDF
 10759                           postinc2	equ	0xFDE
 10760                           postdec2	equ	0xFDD
 10761                           plusw2	equ	0xFDB
 10762                           fsr2h	equ	0xFDA
 10763                           fsr2l	equ	0xFD9
 10764                           status	equ	0xFD8
 10765                           
 10766                           	psect	temp
 10767  00004D                     btemp:
 10768                           	opt stack 0
 10769  00004D                     	ds	1
 10770  0000                     int$flags	set	btemp
 10771  0000                     wtemp6	set	btemp+1
 10772                           tosu	equ	0xFFF
 10773                           tosh	equ	0xFFE
 10774                           tosl	equ	0xFFD
 10775                           pclatu	equ	0xFFB
 10776                           pclath	equ	0xFFA
 10777                           tblptru	equ	0xFF8
 10778                           tblptrh	equ	0xFF7
 10779                           tblptrl	equ	0xFF6
 10780                           tablat	equ	0xFF5
 10781                           prodh	equ	0xFF4
 10782                           prodl	equ	0xFF3
 10783                           indf0	equ	0xFEF
 10784                           postinc0	equ	0xFEE
 10785                           fsr0h	equ	0xFEA
 10786                           fsr0l	equ	0xFE9
 10787                           wreg	equ	0xFE8
 10788                           indf1	equ	0xFE7
 10789                           fsr1h	equ	0xFE2
 10790                           fsr1l	equ	0xFE1
 10791                           indf2	equ	0xFDF
 10792                           postinc2	equ	0xFDE
 10793                           postdec2	equ	0xFDD
 10794                           plusw2	equ	0xFDB
 10795                           fsr2h	equ	0xFDA
 10796                           fsr2l	equ	0xFD9
 10797                           status	equ	0xFD8


Data Sizes:
    Strings     0
    Constant    1437
    Data        1
    BSS         213
    Persistent  0
    Stack       0

Auto Spaces:
    Space          Size  Autos    Used
    COMRAM           94     28      76
    BANK0           160     18     120
    BANK1           256      0      64
    BANK2           256      0       0
    BANK3           256      0       0
    BANK4           208      0       0
    BANK5           244      0       0
    BANK6           256      0       0
    BANK7           256      0       0

Pointer List with Targets:

    USER_USB_CALLBACK_EVENT_HANDLER@pdata	PTR void  size(2) Largest target is 2047
		 -> RAM(DATA[2047]), USTATcopy(COMRAM[1]), USBActiveConfiguration(COMRAM[1]), NULL(NULL[0]), 
		 -> BDT(BIGRAMl[32]), 

    memset@p1	PTR void  size(2) Largest target is 32
		 -> USBAlternateInterface(COMRAM[1]), BDT(BIGRAMl[32]), UEP1(SFR_1[1]), 

    memset@p	PTR unsigned char  size(2) Largest target is 32
		 -> USBAlternateInterface(COMRAM[1]), BDT(BIGRAMl[32]), UEP1(SFR_1[1]), 

    memcpy@d1	PTR void  size(2) Largest target is 8
		 -> SetupPkt(BIGRAMhl[8]), 

    memcpy@d	PTR unsigned char  size(2) Largest target is 8
		 -> SetupPkt(BIGRAMhl[8]), 

    memcpy@s1	PTR const void  size(2) Largest target is 2047
		 -> CtrlTrfData(BIGRAMhl[8]), RAM(DATA[2047]), SetupPkt(BIGRAMhl[8]), 

    memcpy@s	PTR const unsigned char  size(2) Largest target is 2047
		 -> CtrlTrfData(BIGRAMhl[8]), RAM(DATA[2047]), SetupPkt(BIGRAMhl[8]), 

    lastTransmission	PTR void  size(2) Largest target is 2047
		 -> RAM(DATA[2047]), NULL(NULL[0]), BDT(BIGRAMl[32]), 

    USBStdFeatureReqHandler@pUEP	PTR unsigned char  size(2) Largest target is 1
		 -> UEP0(SFR_1[1]), 

    USBStdFeatureReqHandler@p	PTR struct __BDT size(2) Largest target is 2047
		 -> RAM(DATA[2047]), NULL(NULL[0]), BDT(BIGRAMl[32]), 

    sp__memcpy	PTR void  size(2) Largest target is 8
		 -> SetupPkt(BIGRAMhl[8]), 

    USBStdGetStatusHandler@p	PTR struct __BDT size(2) Largest target is 2047
		 -> RAM(DATA[2047]), NULL(NULL[0]), BDT(BIGRAMl[32]), 

    USB_SD_Ptr	const PTR const unsigned char [3] size(2) Largest target is 52
		 -> sd002(CODE[28]), sd001(CODE[52]), sd000(CODE[4]), 

    USB_CD_Ptr	const PTR const unsigned char [1] size(2) Largest target is 41
		 -> configDescriptor1(CODE[41]), 

    pDst	PTR unsigned char  size(2) Largest target is 8
		 -> CtrlTrfData(BIGRAMhl[8]), NULL(NULL[0]), 

    USBConfigureEndpoint@handle	PTR volatile struct __BDT size(2) Largest target is 32
		 -> BDT(BIGRAMl[32]), 

    pBDTEntryEP0OutCurrent	PTR volatile struct __BDT size(2) Largest target is 32
		 -> NULL(NULL[0]), BDT(BIGRAMl[32]), 

    pBDTEntryEP0OutNext	PTR volatile struct __BDT size(2) Largest target is 2047
		 -> RAM(DATA[2047]), NULL(NULL[0]), BDT(BIGRAMl[32]), 

    USBTransferOnePacket@data	PTR unsigned char  size(2) Largest target is 12
		 -> joystick_input(BIGRAMhl[12]), 

    sp__USBTransferOnePacket	PTR void  size(2) Largest target is 2047
		 -> RAM(DATA[2047]), NULL(NULL[0]), BDT(BIGRAMl[32]), 

    USBTransferOnePacket@handle	PTR volatile struct __BDT size(2) Largest target is 2047
		 -> RAM(DATA[2047]), NULL(NULL[0]), BDT(BIGRAMl[32]), 

    USBEnableEndpoint@p	PTR unsigned char  size(2) Largest target is 1
		 -> UEP0(SFR_1[1]), 

    pBDTEntryOut	PTR volatile struct __BDT[2] size(2) Largest target is 2047
		 -> RAM(DATA[2047]), NULL(NULL[0]), BDT(BIGRAMl[32]), 

    pBDTEntryIn	PTR volatile struct __BDT[2] size(2) Largest target is 2047
		 -> RAM(DATA[2047]), NULL(NULL[0]), BDT(BIGRAMl[32]), 

    S475$pFunc	PTR FTN()void  size(2) Largest target is 1
		 -> USBSetEffect(), USBSetDataEffect(), 

    outPipes.pFunc	PTR FTN()void  size(2) Largest target is 1
		 -> USBSetEffect(), USBSetDataEffect(), 

    S465$wRam	PTR unsigned int  size(2) Largest target is 0

    outPipes.pDst.wRam	PTR unsigned int  size(2) Largest target is 0

    S465$bRam	PTR unsigned char  size(2) Largest target is 0

    outPipes.pDst.bRam	PTR unsigned char  size(2) Largest target is 0

    S441$wRom	PTR const unsigned int  size(2) Largest target is 0

    inPipes.pSrc.wRom	PTR const unsigned int  size(2) Largest target is 0

    S441$wRam	PTR unsigned int  size(2) Largest target is 0

    inPipes.pSrc.wRam	PTR unsigned int  size(2) Largest target is 0

    S441$bRom	PTR const unsigned char  size(2) Largest target is 0

    inPipes.pSrc.bRom	PTR const unsigned char  size(2) Largest target is 0

    S441$bRam	PTR unsigned char  size(2) Largest target is 0

    inPipes.pSrc.bRam	PTR unsigned char  size(2) Largest target is 0

    sp__memset	PTR void  size(2) Largest target is 32
		 -> USBAlternateInterface(COMRAM[1]), BDT(BIGRAMl[32]), UEP1(SFR_1[1]), 


Critical Paths under _main in COMRAM

    _USBDeviceInit->_memset
    _USBCtrlEPAllowDataStage->_USBCtrlTrfTxService
    _USBCheckStdRequest->_USBStdFeatureReqHandler
    _USBCheckStdRequest->_USBStdSetCfgHandler
    _SYSTEM_Initialize->_BUTTON_Enable
    _SYSTEM_Initialize->_LED_Enable
    _SYSTEM_Initialize->_WHEEL_Enable
    _APP_LEDUpdateUSBStatus->_LED_Off
    _APP_LEDUpdateUSBStatus->_LED_On
    _APP_DeviceJoystickInitialize->_USBEnableEndpoint
    _USBEnableEndpoint->_USBConfigureEndpoint
    _USBCtrlTrfOutHandler->_USBCtrlTrfRxService
    _USBCtrlTrfInHandler->_USBCtrlTrfTxService
    _APP_DeviceJoystickTasks->_USBTransferOnePacket

Critical Paths under _SYS_InterruptHigh in COMRAM

    None.

Critical Paths under _main in BANK0

    _main->_USBDeviceTasks
    _USBDeviceTasks->_USBCtrlEPService
    _USBWakeFromSuspend->_USER_USB_CALLBACK_EVENT_HANDLER
    _USBSuspend->_USER_USB_CALLBACK_EVENT_HANDLER
    _USBCheckStdRequest->_USBStdFeatureReqHandler
    _USBStdSetCfgHandler->_USER_USB_CALLBACK_EVENT_HANDLER
    _USBStdFeatureReqHandler->_USER_USB_CALLBACK_EVENT_HANDLER
    _APP_DeviceJoystickInitialize->_USBEnableEndpoint
    _APP_DeviceJoystickTasks->_USBTransferOnePacket

Critical Paths under _SYS_InterruptHigh in BANK0

    None.

Critical Paths under _main in BANK1

    None.

Critical Paths under _SYS_InterruptHigh in BANK1

    None.

Critical Paths under _main in BANK2

    None.

Critical Paths under _SYS_InterruptHigh in BANK2

    None.

Critical Paths under _main in BANK3

    None.

Critical Paths under _SYS_InterruptHigh in BANK3

    None.

Critical Paths under _main in BANK4

    None.

Critical Paths under _SYS_InterruptHigh in BANK4

    None.

Critical Paths under _main in BANK5

    None.

Critical Paths under _SYS_InterruptHigh in BANK5

    None.

Critical Paths under _main in BANK6

    None.

Critical Paths under _SYS_InterruptHigh in BANK6

    None.

Critical Paths under _main in BANK7

    None.

Critical Paths under _SYS_InterruptHigh in BANK7

    None.

Call Graph Tables:

 ---------------------------------------------------------------------------------
 (Depth) Function   	        Calls       Base Space   Used Autos Params    Refs
 ---------------------------------------------------------------------------------
 (0) _main                                                 0     0      0   37316
            _APP_DeviceJoystickTasks
                  _SYSTEM_Initialize
                      _USBDeviceInit
                     _USBDeviceTasks
 ---------------------------------------------------------------------------------
 (1) _USBDeviceTasks                                       1     1      0   34293
                                             17 BANK0      1     1      0
          _USBCtrlEPAllowStatusStage
                   _USBCtrlEPService
                      _USBDeviceInit
      _USBIncrement1msInternalTimers
                    _USBStallHandler
                         _USBSuspend
                 _USBWakeFromSuspend
    _USER_USB_CALLBACK_EVENT_HANDLER
 ---------------------------------------------------------------------------------
 (2) _USBWakeFromSuspend                                   0     0      0    4185
    _USER_USB_CALLBACK_EVENT_HANDLER
 ---------------------------------------------------------------------------------
 (2) _USBSuspend                                           0     0      0    4185
    _USER_USB_CALLBACK_EVENT_HANDLER
 ---------------------------------------------------------------------------------
 (2) _USBStallHandler                                      1     1      0       0
                                             18 COMRAM     1     1      0
 ---------------------------------------------------------------------------------
 (2) _USBIncrement1msInternalTimers                        0     0      0       0
 ---------------------------------------------------------------------------------
 (2) _USBDeviceInit                                        1     1      0    1676
                                             26 COMRAM     1     1      0
                             _memset
 ---------------------------------------------------------------------------------
 (2) _USBCtrlEPService                                     1     1      0   19994
                                             16 BANK0      1     1      0
                _USBCtrlTrfInHandler
               _USBCtrlTrfOutHandler
             _USBCtrlTrfSetupHandler
                             _memcpy
 ---------------------------------------------------------------------------------
 (3) _memcpy                                              11     5      6     520
                                             18 COMRAM     6     0      6
                                              0 BANK0      5     5      0
 ---------------------------------------------------------------------------------
 (3) _USBCtrlTrfSetupHandler                               0     0      0   19137
                 _USBCheckStdRequest
           _USBCtrlEPServiceComplete
    _USER_USB_CALLBACK_EVENT_HANDLER
 ---------------------------------------------------------------------------------
 (4) _USBCtrlEPServiceComplete                             0     0      0     136
            _USBCtrlEPAllowDataStage
          _USBCtrlEPAllowStatusStage
 ---------------------------------------------------------------------------------
 (5) _USBCtrlEPAllowDataStage                              0     0      0     136
                _USBCtrlTrfTxService
 ---------------------------------------------------------------------------------
 (4) _USBCheckStdRequest                                   0     0      0   14816
            _USBStdFeatureReqHandler
                _USBStdGetDscHandler
             _USBStdGetStatusHandler
                _USBStdSetCfgHandler
    _USER_USB_CALLBACK_EVENT_HANDLER
 ---------------------------------------------------------------------------------
 (5) _USBStdSetCfgHandler                                  1     1      0    5700
                                             27 COMRAM     1     1      0
    _USER_USB_CALLBACK_EVENT_HANDLER
                             _memset
 ---------------------------------------------------------------------------------
 (3) _memset                                               8     2      6    1385
                                             18 COMRAM     8     2      6
 ---------------------------------------------------------------------------------
 (5) _USBStdGetStatusHandler                               3     3      0      68
                                             18 COMRAM     3     3      0
 ---------------------------------------------------------------------------------
 (5) _USBStdGetDscHandler                                  2     2      0       0
                                             18 COMRAM     2     2      0
 ---------------------------------------------------------------------------------
 (5) _USBStdFeatureReqHandler                              6     6      0    4863
                                             27 COMRAM     1     1      0
                                             11 BANK0      5     5      0
    _USER_USB_CALLBACK_EVENT_HANDLER
 ---------------------------------------------------------------------------------
 (2) _USER_USB_CALLBACK_EVENT_HANDLER                      8     2      6    4185
                                              3 BANK0      8     2      6
       _APP_DeviceJoystickInitialize
             _APP_LEDUpdateUSBStatus
                  _SYSTEM_Initialize
                 _USBCheckHIDRequest
 ---------------------------------------------------------------------------------
 (3) _USBCheckHIDRequest                                   0     0      0       0
 ---------------------------------------------------------------------------------
 (3) _SYSTEM_Initialize                                    1     1      0     124
                                             19 COMRAM     1     1      0
                      _BUTTON_Enable
                         _LED_Enable
                       _WHEEL_Enable
 ---------------------------------------------------------------------------------
 (4) _WHEEL_Enable                                         1     1      0      31
                                             18 COMRAM     1     1      0
 ---------------------------------------------------------------------------------
 (4) _LED_Enable                                           1     1      0      31
                                             18 COMRAM     1     1      0
 ---------------------------------------------------------------------------------
 (4) _BUTTON_Enable                                        1     1      0      31
                                             18 COMRAM     1     1      0
 ---------------------------------------------------------------------------------
 (3) _APP_LEDUpdateUSBStatus                               0     0      0      62
                            _LED_Off
                             _LED_On
 ---------------------------------------------------------------------------------
 (4) _LED_On                                               1     1      0      31
                                             18 COMRAM     1     1      0
 ---------------------------------------------------------------------------------
 (4) _LED_Off                                              1     1      0      31
                                             18 COMRAM     1     1      0
 ---------------------------------------------------------------------------------
 (3) _APP_DeviceJoystickInitialize                         0     0      0     848
                  _USBEnableEndpoint
 ---------------------------------------------------------------------------------
 (4) _USBEnableEndpoint                                    4     3      1     848
                                             26 COMRAM     1     0      1
                                              0 BANK0      3     3      0
               _USBConfigureEndpoint
 ---------------------------------------------------------------------------------
 (5) _USBConfigureEndpoint                                 8     7      1     524
                                             18 COMRAM     8     7      1
 ---------------------------------------------------------------------------------
 (3) _USBCtrlTrfOutHandler                                 0     0      0     167
                _USBCtrlTrfRxService
 ---------------------------------------------------------------------------------
 (4) _USBCtrlTrfRxService                                  2     2      0     167
                                             18 COMRAM     2     2      0
          _USBCtrlEPAllowStatusStage
                   _USBSetDataEffect *
                       _USBSetEffect *
 ---------------------------------------------------------------------------------
 (5) _USBCtrlEPAllowStatusStage                            0     0      0       0
 ---------------------------------------------------------------------------------
 (3) _USBCtrlTrfInHandler                                  1     1      0     170
                                             19 COMRAM     1     1      0
                _USBCtrlTrfTxService
                   _USBSetDataEffect *
                       _USBSetEffect *
 ---------------------------------------------------------------------------------
 (5) _USBSetEffect                                         0     0      0       0
 ---------------------------------------------------------------------------------
 (5) _USBSetDataEffect                                     0     0      0       0
 ---------------------------------------------------------------------------------
 (6) _USBCtrlTrfTxService                                  1     1      0     136
                                             18 COMRAM     1     1      0
 ---------------------------------------------------------------------------------
 (1) _APP_DeviceJoystickTasks                              1     1      0    1223
                                             26 COMRAM     1     1      0
                   _BUTTON_IsPressed
                     _PEDAL_Position
               _USBTransferOnePacket
                         _WHEEL_Test
 ---------------------------------------------------------------------------------
 (2) _WHEEL_Test                                           1     1      0      22
                                             18 COMRAM     1     1      0
 ---------------------------------------------------------------------------------
 (2) _USBTransferOnePacket                                11     7      4    1157
                                             18 COMRAM     8     4      4
                                              0 BANK0      3     3      0
 ---------------------------------------------------------------------------------
 (2) _PEDAL_Position                                       2     2      0      22
                                             18 COMRAM     2     2      0
 ---------------------------------------------------------------------------------
 (2) _BUTTON_IsPressed                                     1     1      0      22
                                             18 COMRAM     1     1      0
 ---------------------------------------------------------------------------------
 Estimated maximum stack depth 6
 ---------------------------------------------------------------------------------
 (Depth) Function   	        Calls       Base Space   Used Autos Params    Refs
 ---------------------------------------------------------------------------------
 (10) _SYS_InterruptHigh                                  18    18      0       0
                                              0 COMRAM    18    18      0
 ---------------------------------------------------------------------------------
 Estimated maximum stack depth 10
 ---------------------------------------------------------------------------------

 Call Graph Graphs:

 _main (ROOT)
   _APP_DeviceJoystickTasks
     _BUTTON_IsPressed
     _PEDAL_Position
     _USBTransferOnePacket
     _WHEEL_Test
   _SYSTEM_Initialize
     _BUTTON_Enable
     _LED_Enable
     _WHEEL_Enable
   _USBDeviceInit
     _memset
   _USBDeviceTasks
     _USBCtrlEPAllowStatusStage
     _USBCtrlEPService
       _USBCtrlTrfInHandler
         _USBCtrlTrfTxService
         _USBSetDataEffect *
         _USBSetEffect *
       _USBCtrlTrfOutHandler
         _USBCtrlTrfRxService
           _USBCtrlEPAllowStatusStage
           _USBSetDataEffect *
           _USBSetEffect *
       _USBCtrlTrfSetupHandler
         _USBCheckStdRequest
           _USBStdFeatureReqHandler
             _USER_USB_CALLBACK_EVENT_HANDLER
               _APP_DeviceJoystickInitialize
                 _USBEnableEndpoint
                   _USBConfigureEndpoint
               _APP_LEDUpdateUSBStatus
                 _LED_Off
                 _LED_On
               _SYSTEM_Initialize
                 _BUTTON_Enable
                 _LED_Enable
                 _WHEEL_Enable
               _USBCheckHIDRequest
           _USBStdGetDscHandler
           _USBStdGetStatusHandler
           _USBStdSetCfgHandler
             _USER_USB_CALLBACK_EVENT_HANDLER
               _APP_DeviceJoystickInitialize
                 _USBEnableEndpoint
                   _USBConfigureEndpoint
               _APP_LEDUpdateUSBStatus
                 _LED_Off
                 _LED_On
               _SYSTEM_Initialize
                 _BUTTON_Enable
                 _LED_Enable
                 _WHEEL_Enable
               _USBCheckHIDRequest
             _memset
           _USER_USB_CALLBACK_EVENT_HANDLER
             _APP_DeviceJoystickInitialize
               _USBEnableEndpoint
                 _USBConfigureEndpoint
             _APP_LEDUpdateUSBStatus
               _LED_Off
               _LED_On
             _SYSTEM_Initialize
               _BUTTON_Enable
               _LED_Enable
               _WHEEL_Enable
             _USBCheckHIDRequest
         _USBCtrlEPServiceComplete
           _USBCtrlEPAllowDataStage
             _USBCtrlTrfTxService
           _USBCtrlEPAllowStatusStage
         _USER_USB_CALLBACK_EVENT_HANDLER
           _APP_DeviceJoystickInitialize
             _USBEnableEndpoint
               _USBConfigureEndpoint
           _APP_LEDUpdateUSBStatus
             _LED_Off
             _LED_On
           _SYSTEM_Initialize
             _BUTTON_Enable
             _LED_Enable
             _WHEEL_Enable
           _USBCheckHIDRequest
       _memcpy
     _USBDeviceInit
       _memset
     _USBIncrement1msInternalTimers
     _USBStallHandler
     _USBSuspend
       _USER_USB_CALLBACK_EVENT_HANDLER
         _APP_DeviceJoystickInitialize
           _USBEnableEndpoint
             _USBConfigureEndpoint
         _APP_LEDUpdateUSBStatus
           _LED_Off
           _LED_On
         _SYSTEM_Initialize
           _BUTTON_Enable
           _LED_Enable
           _WHEEL_Enable
         _USBCheckHIDRequest
     _USBWakeFromSuspend
       _USER_USB_CALLBACK_EVENT_HANDLER
         _APP_DeviceJoystickInitialize
           _USBEnableEndpoint
             _USBConfigureEndpoint
         _APP_LEDUpdateUSBStatus
           _LED_Off
           _LED_On
         _SYSTEM_Initialize
           _BUTTON_Enable
           _LED_Enable
           _WHEEL_Enable
         _USBCheckHIDRequest
     _USER_USB_CALLBACK_EVENT_HANDLER
       _APP_DeviceJoystickInitialize
         _USBEnableEndpoint
           _USBConfigureEndpoint
       _APP_LEDUpdateUSBStatus
         _LED_Off
         _LED_On
       _SYSTEM_Initialize
         _BUTTON_Enable
         _LED_Enable
         _WHEEL_Enable
       _USBCheckHIDRequest

 _SYS_InterruptHigh (ROOT)

 Address spaces:
Name               Size   Autos  Total    Cost      Usage
BIGRAMl            3FF      0       0      22        0.0%
BIGRAMhh           2F4      0       0      20        0.0%
EEDATA             100      0       0       0        0.0%
BITBANK7           100      0       0      18        0.0%
BANK7              100      0       0      19        0.0%
BITBANK6           100      0       0      16        0.0%
BANK6              100      0       0      17        0.0%
BITBANK3           100      0       0      10        0.0%
BANK3              100      0       0      11        0.0%
BITBANK2           100      0       0       8        0.0%
BANK2              100      0       0       9        0.0%
BITBANK1           100      0       0       6        0.0%
BANK1              100      0      40       7       25.0%
BITBANK5            F4      0       0      14        0.0%
BANK5               F4      0       0      15        0.0%
BIGRAMhl            D0      0       0      21        0.0%
BITBANK4            D0      0       0      12        0.0%
BANK4               D0      0       0      13        0.0%
BITBANK0            A0      0       0       4        0.0%
BANK0               A0     12      78       5       75.0%
BITCOMRAM           5E      0       0       0        0.0%
COMRAM              5E     1C      4C       1       80.9%
BITSFR_1             0      0       0     200        0.0%
SFR_1                0      0       0     200        0.0%
BITSFR               0      0       0     200        0.0%
SFR                  0      0       0     200        0.0%
STACK                0      0       0       2        0.0%
NULL                 0      0       0       0        0.0%
ABS                  0      0     104       3        0.0%
DATA                 0      0     104      23        0.0%
CODE                 0      0       0       0        0.0%


Microchip Technology PIC18 Macro Assembler V1.45 build -152302408 
Symbol Table                                                                                   Mon May 28 15:35:26 2018

                   __size_of_USBSetEffect 016A                                _USB_SD_Ptr 7A61  
                                      l20 0CCA                                        l21 0CD6  
                                      l30 0D42                                        l22 0CE2  
                                      l15 0D46                                        l23 0CEE  
                                      l24 0CFA                                        l16 0CA6  
                                      l40 13AA                                        l25 0D06  
                                      l41 13B2                                        l26 0D12  
                                      l18 0CB2                                        l34 13F2  
                                      l42 13BA                                        l27 0D1E  
                                      l19 0CBE                                        l43 13C2  
                                      l35 1392                                        l28 0D2A  
                                      l60 1B40                                        l44 13CA  
                                      l29 0D36                                        l45 13D2  
                                      l37 1396                                        l70 1B76  
                                      l62 1B44                                        l46 13DA  
                                      l38 139A                                        l63 1B48  
                                      l47 13E2                                        l39 13A2  
                                      l72 1B7A                                        l64 1B4C  
                                      l48 13EA                                        l73 1B7E  
                                      l74 1B82                                        l59 1B50  
                                      l69 1B86                                        l99 1A12  
                             ?_LED_Enable 0030                             _USBDeviceInit 0816  
                      _USBCheckHIDRequest 112A                              __CFG_CP0$OFF 000000  
                            __CFG_CP1$OFF 000000                              __CFG_CP2$OFF 000000  
                            __CFG_CP3$OFF 000000      USER_USB_CALLBACK_EVENT_HANDLER@event 00C9  
    USER_USB_CALLBACK_EVENT_HANDLER@pdata 00CB                                       l100 19F2  
                                     l102 19FA                                       l103 1A02  
                                     l104 1A0A                                       l312 15CC  
                                     l400 1AF8                                       l306 1312  
                                     l314 15E2                                       l323 0E16  
                                     l243 0858                                       l324 0DC0  
                                     l260 0702                                       l341 1286  
                                     l413 156E                                       l245 087E  
                                     l261 070A                                       l342 1250  
                                     l318 1676               __end_of_USBStdGetDscHandler 0B9A  
                                     l414 1568                                       l270 0798  
                                     l262 071A                                       l254 06DE  
                                     l247 08B4                                       l407 1BD2  
                                     l263 0724                                       l255 06D6  
                                     l440 0F6C                                       l432 0EC4  
                                     l352 099E                                       l424 18B6  
                                     l600 175E                                       l328 0E3C  
                                     l408 1BD0                                       l272 07AA  
                                     l256 06D4                                       l345 12C4  
                                     l337 121E                                       l433 0EC8  
                                     l353 097C                                       l265 074A  
                                     l346 128E                                       l434 0F42  
                                     l426 18FE                                       l282 1A8C  
                                     l450 1068                                       l291 0C5E  
                                     l339 1228                                       l435 0F08  
                                     l355 0A12                                       l283 1A9C  
                                     l451 106E                                       l275 07D0  
                                     l267 075E                                       l259 06F6  
                                     l356 09F8                                       l372 0B82  
                                     l364 0FBA                                       l452 1074  
                                     l268 0768                                       l437 0F28  
                                     l541 117A                                       l381 0B7C  
                                     l373 0A90                                       l453 1086  
                                     l277 07EE                                       l269 078E  
                                     l542 1146                                       l390 1462  
                                     l366 102C                                       l454 108C  
                                     l287 0BB4                                       l471 019C  
                                     l375 0AA2                                       l391 1466  
                                     l447 10E6                                       l279 080C  
                                     l632 1832                                       l544 118A  
                                     l480 02F6                                       l464 00C2  
                                     l376 0B22                                       l392 1480  
                                     l456 1092                                       l448 1060  
                                     l289 0BE0                                       l625 1828  
                                     l633 17FC                                       l553 1198  
                                     l545 1162                                       l473 0220  
                                     l465 00C6                                       l385 14BC  
                                     l457 10AE                                       l634 180C  
                                     l626 17C4                                       l554 11AE  
                                     l378 0B28                                       l386 1456  
                                     l458 10C6                                       l627 17D4  
                                     l555 11B8                                       l483 02B0  
                                     l475 01EA                                       l467 012C  
                                     l379 0B76                                       l636 181E  
                                     l556 11CE                                       l476 0206  
                                     l629 17E6                                       l549 11D8  
                                     l485 0302                                       l469 0178  
                                     l389 14D2                                       l661 1C40  
                                     l750 0362                                       l478 026E  
                                     l662 1C4C                                       l751 0366  
                                     l479 027A                                       l399 1AFA  
                                     l760 03E4                                       l752 037C  
                                     l744 0332                                       l840 1998  
                                     l592 1764                                       l761 03E8  
                                     l753 0380                                       l841 1960  
                                     l770 0466                                       l762 03FE  
                                     l754 0396                                       l842 1984  
                                     l771 046A                                       l763 0402  
                                     l755 039A                                       l691 1B2A  
                                     l595 173A                                       l772 0480  
                                     l764 0418                                       l756 03B0  
                                     l780 066A                                       l692 1B02  
                                     l596 1740                                       _BDT 000400  
                                     l773 0484                                       l765 041C  
                                     l757 03B4                                       l781 055C  
                                     l597 174C                                       l774 049A  
                                     l766 0432                                       l758 03CA  
                                     l790 060E                                       l694 1B0E  
                                     l598 1758                                       l871 193C  
                                     l775 049E                                       l767 0436  
                                     l759 03CE                                       l791 0624  
                                     l783 0574                                       l864 194A  
                                     l776 04FA                                       l768 044C  
                                     l792 063A                                       l784 058A  
                                     l873 1958                                       l865 1908  
                                     l769 0450                                       l793 0650  
                                     l785 05A0                                       l890 1884  
                                     l882 185C                                       l866 1928  
                                     l786 05B6                                       l867 191C  
                                     l787 05CC                                       l788 05E2  
                                     l789 05F8                                       l878 1890  
                                     l879 183C                              __CFG_CPB$OFF 000000  
                            __CFG_CPD$OFF 000000                                       _UIE 000F64  
                                     _UIR 000F65                    _APP_LEDUpdateUSBStatus 17B8  
                              _USBSuspend 1BDC                      USBStdSetCfgHandler@i 004B  
                                     prod 000FF3                                       tosl 000FFD  
                                     wreg 000FE8                            _USBDeviceTasks 06B8  
                     ?_USBCheckHIDRequest 0030                            _USBDeviceState 002C  
                           _BUTTON_Enable 138E                     ??_USBCtrlTrfRxService 0042  
                USBEnableEndpoint@options 004A                              __CFG_LVP$OFF 000000  
                         __end_of_LED_Off 1BA8                  __end_of_USBSetDataEffect 1C8E  
                                    l1330 1C14                                      l1323 19DC  
                                    l1324 19BA                                      l1329 1C24  
              USBConfigureEndpoint@handle 0048                                      l5021 19BA  
                                    l5129 0850                                      l4419 115C  
                                    l5157 08AC                                      l4519 1C14  
                                    l4563 1228                                      l5375 07A2  
                                    l4657 0FB2                                      l3947 191C  
                                    l3983 1864                                      l5583 177E  
                                    l5585 17B2                                      l3999 188C  
                                    u3000 0CDE                                      u3100 0D1A  
                                    u3020 0CEA                                      u3120 0D26  
                                    u3040 0CF6                                      u3140 0D32  
                                    u3060 0D02                                      u3160 0D3E  
                                    u3080 0D0E                                      u4200 12B6  
                                    u4207 12AC                                      u4080 17F2  
                                    u4330 0AF0                                      u4180 1278  
                                    u4340 0B1E                                      u2920 0CAE  
                                    u5320 034C                                      u4360 0B6C  
                                    u4337 0AE6                                      u4290 0FE6  
                                    u4187 126E                                      u4347 0B14  
                                    u2940 0CBA                                      u4367 0B62  
                                    u2960 0CC6                                      u5280 0812  
                                    u2980 0CD2                                      u4580 0296  
                                    u4900 0910                                      u5527 1852  
                                    u4728 0A5E                                      u5537 187A  
                                    u4729 0A72                                      u4870 0874  
                   ??_USBCtrlTrfTxService 0042                                      u4858 0F56  
                                    u4859 0F6A                                      _UCFG 000F62  
                                    _UEP0 000F6A                                      _UEP1 000F6B  
                                    _UEIE 000F66                                      _UEIR 000F67  
                                    _UCON 000F60    USBStdFeatureReqHandler@current_ep_data 00D3  
                                    _pDst 007A                              _USBSetEffect 054E  
                                    _main 1C36                                      fsr0h 000FEA  
                                    fsr1h 000FE2                                      indf0 000FEF  
                                    fsr2h 000FDA                                      fsr0l 000FE9  
                                    indf1 000FE7                                      indf2 000FDF  
                                    fsr1l 000FE1                                      fsr2l 000FD9  
                                    btemp 004D                             __CFG_BORV$190 000000  
                                    prodh 000FF4                                      prodl 000FF3  
                                    start 009E                             __CFG_IESO$OFF 000000  
         __end_of_APP_DeviceJoystickTasks 054E                      ??_USBCheckHIDRequest 0042  
              __end_of_USBCheckStdRequest 112A                    ??_USBCtrlTrfOutHandler 0044  
                           __CFG_MCLRE$ON 000000                              ___param_bank 000000  
               ??_USBStdFeatureReqHandler 004B                  ??_USBStdGetStatusHandler 0042  
                          ?_USBDeviceInit 0030                                     ?_main 0030  
       __size_of_USBCtrlEPServiceComplete 00F0                            _PEDAL_Position 1838  
                  __end_of_USBDeviceTasks 0816                 ?_USBCtrlEPServiceComplete 0030  
                                   _UADDR 000F63                               ?_WHEEL_Test 0030  
                                   _USTAT 000F61                             __CFG_WRT0$OFF 000000  
      __size_of_USBCtrlEPAllowStatusStage 00C2                             __CFG_WRT1$OFF 000000  
                           __CFG_WRT2$OFF 000000                             __CFG_WRT3$OFF 000000  
                          __CFG_EBTR0$OFF 000000                            __CFG_FCMEN$OFF 000000  
                          ?_BUTTON_Enable 0030                            __CFG_EBTR1$OFF 000000  
                          __CFG_EBTR2$OFF 000000                            __CFG_EBTR3$OFF 000000  
         __end_of_USBCtrlEPAllowDataStage 1614                                     _sd000 7FFA  
                                   _sd001 7F6F                                     _sd002 7FCC  
                           __CFG_WRTB$OFF 000000            ?_USBIncrement1msInternalTimers 0030  
                           __CFG_WRTC$OFF 000000                             __CFG_WRTD$OFF 000000  
                          __CFG_EBTRB$OFF 000000                 __size_of_BUTTON_IsPressed 00FE  
                                   pclath 000FFA                                     tablat 000FF5  
                     __size_of_LED_Enable 0046                                     plusw2 000FDB  
                                   status 000FD8                            __CFG_T3CMX$RC0 000000  
                                   wtemp6 004E                            __CFG_ICPRT$OFF 000000  
            __size_of_USBStdSetCfgHandler 00DE                           __initialization 1A34  
                            __end_of_main 1C56                    __end_of_PEDAL_Position 18A8  
               __size_of_USBCtrlEPService 0098                                    ??_main 004C  
                           __activetblptr 000002                           ?_USBDeviceTasks 0030  
                       WHEEL_Enable@wheel 0042                               ?_USBSuspend 0030  
                               ??_LED_Off 0042                            __CFG_SDOMX$RC7 000000  
                         __CFG_CCP2MX$RC1 000000                                    _ACTCON 000FB5  
                                  _ADRESL 000FC3                    SYSTEM_Initialize@state 0043  
                                  _LED_On 1B3C                                    _OSCCON 000FD3  
                     __size_of_WHEEL_Test 0058                         _shortPacketStatus 002B  
                          __CFG_XINST$OFF 000000                           USBDeviceTasks@i 00D7  
             USBStdFeatureReqHandler@pUEP 00D1                  USBTransferOnePacket@data 0043  
              USBCtrlTrfInHandler@lastDTS 0043                           ??_USBDeviceInit 004A  
                          __CFG_STVREN$ON 000000                         _USBEnableEndpoint 1A78  
         __size_of_USBStdGetStatusHandler 009C                                    _memcpy 19A8  
                                  _memset 1C0A                           ?_PEDAL_Position 0030  
                                  clear_0 1A4C                                    clear_1 1A58  
                                  clear_2 1A64                        ?_USBEnableEndpoint 004A  
           __size_of_USBTransferOnePacket 0108                           ??_BUTTON_Enable 0042  
                            __pdataCOMRAM 004C                              __mediumconst 7A60  
                                  tblptrh 000FF7                                    tblptrl 000FF6  
                                  tblptru 000FF8                       ??_USBEnableEndpoint 004B  
        __size_of_APP_DeviceJoystickTasks 0224                               _CtrlTrfData 000428  
                    _controlTransferState 002A                      __CFG_LS48MHZ$SYS48X8 000000  
                       _SYSTEM_Initialize 1AFE                                __accesstop 0060  
                 __end_of__initialization 1A6A                           __CFG_PBADEN$OFF 000000  
                      ?_SYSTEM_Initialize 0030                             ___rparam_used 000001  
                __size_of_USBStallHandler 0042                       __size_of_USBSuspend 002E  
                          __pcstackCOMRAM 0030                 __end_of_USBEnableEndpoint 1ABC  
                        __CFG_nPWRTEN$OFF 000000                             __end_of_sd000 7FFE  
                           __end_of_sd001 7FA3                             __end_of_sd002 7FE8  
                     ??_SYSTEM_Initialize 0043                                 LED_On@led 0042  
        __size_of_USBCtrlEPAllowDataStage 0096                           _active_protocol 00C4  
                            ??_LED_Enable 0042             __size_of_USBConfigureEndpoint 0094  
             __end_of_USBCtrlTrfInHandler 0F72                   ?_APP_LEDUpdateUSBStatus 0030  
                         __CFG_PCLKEN$OFF 000000                            __CFG_nLPBOR$ON 000000  
                ??_USBCtrlTrfSetupHandler 004C                   _USBTicksSinceSuspendEnd 001F  
               __end_of_SYSTEM_Initialize 1B3C                          _BUTTON_IsPressed 0CA2  
                  _USBStdGetStatusHandler 144A                         ?_USBSetDataEffect 0030  
                              __pbssBANK0 0060                                __pbssBANK1 0100  
                                 ?_LED_On 0030                  _set_get_effect_structure 00BC  
                      ??_USBSetDataEffect 0042                        __end_of_LED_Enable 1A34  
             __size_of_USBWakeFromSuspend 0034                               _pBDTEntryIn 000F  
        __end_of_USBCtrlEPServiceComplete 0E90                         __CFG_PLLSEL$PLL3X 000000  
                    USBCtrlTrfRxService@i 0042                             LED_Enable@led 0042  
          __end_of_APP_LEDUpdateUSBStatus 1838                                   ?_memcpy 0042  
                                 ?_memset 0042                                _device_dsc 7FE8  
                        _USBCtrlEPService 14E6                                _ep_data_in 0078  
             __end_of_USBCtrlTrfRxService 0A80                              ??_WHEEL_Test 0042  
                           ?_WHEEL_Enable 0030                        _USBCheckStdRequest 1050  
                       _configDescriptor1 7FA3                                   _LED_Off 1B72  
                         __CFG_WDTEN$SWON 000000               __end_of_USBCtrlTrfTxService 12CC  
                     _USBStdSetCfgHandler 0F72                                   _OSCCON2 000FD2  
                                 _OSCTUNE 000F9B                       ?_USBCheckStdRequest 0030  
            __size_of_USBStdGetDscHandler 011A                                   _UIEbits 000F64  
                                 _UIRbits 000F65                           __size_of_LED_On 0036  
          APP_LEDUpdateUSBStatus@ledCount 0015                                   __Hparam 0000  
         ??_USBIncrement1msInternalTimers 0042                      ?_USBStdSetCfgHandler 0030  
             __size_of_USBCheckHIDRequest 00D6                                   __Lparam 0000  
                       __end_of_hid_rpt01 7F6F                        __end_of_WHEEL_Test 195C  
              __size_of_USBEnableEndpoint 0044                      ??_USBCheckStdRequest 004C  
           __size_of_USBCtrlTrfOutHandler 005C                          ??_USBDeviceTasks 004C  
                       ??_USBStallHandler 0042                                   __pcinit 1A34  
                         __size_of_memcpy 0046                           __size_of_memset 002C  
               __end_of_configDescriptor1 7FCC                                   __ramtop 0800  
                         WHEEL_Test@count 0013                                   __ptext0 1C36  
                                 __ptext1 06B8                                   __ptext2 1BA8  
                                 __ptext3 1BDC                                   __ptext4 1ABC  
                                 __ptext5 1C56                                   __ptext6 0816  
                                 __ptext7 14E6                                   __ptext8 19A8  
                                 __ptext9 16A8                                   _inPipes 0009  
                          ??_WHEEL_Enable 0042                           WHEEL_Test@wheel 0042  
             _USBDeferOUTDataStagePackets 0020                              ??_USBSuspend 004B  
                 _APP_DeviceJoystickTasks 032A                        __end_of_USB_CD_Ptr 7A69  
              __size_of_SYSTEM_Initialize 003E           __size_of_USBCtrlTrfSetupHandler 0090  
                    end_of_initialization 1A6A                        __end_of_USB_SD_Ptr 7A67  
                                 memcpy@d 00C7                                   memcpy@n 0046  
                                 memcpy@s 00C9                       _pBDTEntryEP0OutNext 0017  
                                 memset@c 0044                                   memset@n 0046  
                                 memset@p 0048                             __Lmediumconst 7A60  
                         _USB1msTickCount 006C                  ?_USBStdFeatureReqHandler 0030  
                   ??_USBStdSetCfgHandler 004B                          ??_PEDAL_Position 0042  
                      __end_of_USBSuspend 1C0A                   _USBCtrlEPAllowDataStage 157E  
                                 postdec2 000FDD                                   postinc0 000FEE  
                                 postinc2 000FDE                  _USBCtrlEPServiceComplete 0DA0  
              _USBStatusStageEnabledFlag1 0023                _USBStatusStageEnabledFlag2 0022  
                      USBEnableEndpoint@p 00C6                                 _PORTAbits 000F80  
                               _PORTBbits 000F81                                 _PORTDbits 000F83  
                               _TRISAbits 000F92                                 _TRISBbits 000F93  
                               _TRISDbits 000F95                            _joystick_input 000500  
                      _BothEP0OutUOWNsSet 0026                 USBConfigureEndpoint@EPNum 0047  
              ?_USBCtrlEPAllowStatusStage 0030       USER_USB_CALLBACK_EVENT_HANDLER@size 00CD  
                               _USTATcopy 002D              __end_of_USBTransferOnePacket 0CA2  
                          __end_of_LED_On 1B72                    _USBCtrlTrfSetupHandler 16A8  
                __end_of_BUTTON_IsPressed 0DA0                     __end_of_USBDeviceInit 0950  
   __end_of_USBIncrement1msInternalTimers 1C76    __size_of_USBIncrement1msInternalTimers 0020  
           _USBIncrement1msInternalTimers 1C56                                LED_Off@led 0042  
                           __pidataCOMRAM 1C8E                 ??_APP_DeviceJoystickTasks 004A  
                          __end_of_memcpy 19EE                            __end_of_memset 1C36  
                       _USBBusIsSuspended 0028                       start_initialization 1A34  
                 ?_USBStdGetStatusHandler 0030                     __end_of_BUTTON_Enable 144A  
           USBCtrlTrfRxService@byteToRead 0043              __end_of_USBConfigureEndpoint 16A8  
         __end_of_USBStdFeatureReqHandler 032A                                  ??_LED_On 0042  
       __end_of_USBCtrlEPAllowStatusStage 138E                             ?_USBSetEffect 0030  
                __end_of_USBCtrlEPService 157E                      __end_of_WHEEL_Enable 19A8  
               ??_USBCtrlEPAllowDataStage 0043                            USBDeviceInit@i 004A  
                  _pBDTEntryEP0OutCurrent 0019                   USBTransferOnePacket@dir 0042  
                 USBTransferOnePacket@len 0045      __end_of_APP_DeviceJoystickInitialize 1C8C  
   __size_of_APP_DeviceJoystickInitialize 0016              _APP_DeviceJoystickInitialize 1C76  
                     _USBStdGetDscHandler 0A80                 __size_of_USBSetDataEffect 0002  
                                ??_memcpy 0048                                  ??_memset 0048  
                  BUTTON_IsPressed@button 0042                    _USBActiveConfiguration 002F  
          __end_of_USBStdGetStatusHandler 14E6                                  ?_LED_Off 0030  
                             __pbssCOMRAM 0001                             __pcstackBANK0 00C6  
            __size_of_USBCtrlTrfInHandler 00E2                      ?_USBStdGetDscHandler 0030  
                          ??_USBSetEffect 0042                __end_of_USBWakeFromSuspend 1BDC  
                         _USBStallHandler 1ABC                          _lastTransmission 0074  
                            _pBDTEntryOut 0070                           _Buttons_Pressed 001B  
                               __pintcode 0008                             __pmediumconst 7A60  
                     WHEEL_Test@direction 004C                                 _hid_rpt01 7A69  
           ?_APP_DeviceJoystickInitialize 0030                                 _idle_rate 00C5  
                    _USBTransferOnePacket 0B9A                               _CLUTCH_Type 001C  
            __end_of_USBCtrlTrfOutHandler 1904                     ??_USBStdGetDscHandler 0042  
                             _ep_data_out 0076              __size_of_USBCtrlTrfRxService 0130  
           USBConfigureEndpoint@direction 0042              __size_of_USBCtrlTrfTxService 00CC  
                                _LATDbits 000F8C                __end_of_USBCheckHIDRequest 1200  
              ??_USBCtrlEPServiceComplete 0043                                  _PIE3bits 000FA3  
                                _PIR3bits 000FA4                                  _GO_nDONE 007E11  
                        __CFG_WDTPS$32768 000000                                  _UEP0bits 000F6A  
              _USBDeferINDataStagePackets 0021               __size_of_USBCheckStdRequest 00DA  
                                _UCONbits 000F60                      _USBConfigureEndpoint 1614  
        __size_of_USBStdFeatureReqHandler 0288                                _ADCON0bits 000FC2  
                              _ADCON1bits 000FC1                     ?_USBTransferOnePacket 0042  
                       _SYS_InterruptHigh 0008                              _RemoteWakeup 0029  
                       __CFG_CFGPLLEN$OFF 000000                          __size_of_LED_Off 0036  
                      ?_SYS_InterruptHigh 0030                   __end_of_USBStallHandler 1AFE  
                   __size_of_WHEEL_Enable 004C               ??_USBCtrlEPAllowStatusStage 0042  
             __end_of_USBStdSetCfgHandler 1050                            _hid_report_out 007C  
                     ??_SYS_InterruptHigh 0030                        __end_of_device_dsc 7FFA  
                ??_APP_LEDUpdateUSBStatus 0043                   ?_USBCtrlTrfSetupHandler 0030  
                 USBStdGetStatusHandler@p 0043                                  __Hrparam 0000  
                               memcpy@tmp 00C6                  _CONFIGURED_EFFECT_NUMBER 0060  
                                __Lrparam 0000                    USBTransferOnePacket@ep 00C6  
                      __CFG_BOREN$SBORDIS 000000                                  _SetupPkt 000420  
                        _USBSetDataEffect 1C8C                     ?_USBConfigureEndpoint 0042  
                       ?_BUTTON_IsPressed 0030                      __end_of_USBSetEffect 06B8  
               __end_of_SYS_InterruptHigh 009E                                _BREAK_Type 001D  
                      ??_BUTTON_IsPressed 0042                                _ANSELAbits 000F5B  
                              _ANSELBbits 000F5C                                _ANSELDbits 000F5E  
                            _WHEEL_Enable 195C            ??_APP_DeviceJoystickInitialize 004B  
                 __size_of_USBDeviceTasks 015E                                  __ptext10 0DA0  
                                __ptext11 157E                                  __ptext20 1AFE  
                                __ptext12 1050                                  __ptext21 195C  
                                __ptext13 0F72                                  __ptext30 18A8  
                                __ptext22 19EE                                  __ptext14 1C0A  
                                __ptext31 0950                                  __ptext23 138E  
                                __ptext15 144A                                  __ptext40 1838  
                                __ptext32 12CC                                  __ptext24 17B8  
                                __ptext16 0A80                                  __ptext41 0CA2  
                                __ptext33 0E90                                  __ptext25 1B3C  
                                __ptext17 00A2                                  __ptext34 1C8C  
                                __ptext26 1B72                                  __ptext18 1738  
                                __ptext35 054E                                  __ptext27 1C76  
                                __ptext19 112A                                  __ptext36 1200  
                                __ptext28 1A78                                  __ptext37 032A  
                                __ptext29 1614                                  __ptext38 1904  
                                __ptext39 0B9A                               _OSCCON2bits 000FD2  
          __end_of_USBCtrlTrfSetupHandler 1738                             __size_of_main 0020  
                       ?_USBCtrlEPService 0030                        ??_USBCtrlEPService 00D6  
                     _USBCtrlTrfInHandler 0E90                       BUTTON_Enable@button 0042  
                                _outPipes 0001                      _USBCtrlTrfOutHandler 18A8  
                                int$flags 004D                 _USBCtrlEPAllowStatusStage 12CC  
                              _LED_Enable 19EE                    ??_USBTransferOnePacket 0046  
                           _hid_report_in 0100                   __size_of_PEDAL_Position 0070  
               _USBDeferStatusStagePacket 0024                      ?_USBCtrlTrfInHandler 0030  
                                memcpy@d1 0042                                  memcpy@s1 0044  
           USBCtrlTrfTxService@byteToSend 0042                                  memset@p1 0042  
                     PEDAL_Position@pedal 0043                          ?_USBStallHandler 0030  
                USBStdFeatureReqHandler@p 00D4                                  intlevel2 0000  
                  __size_of_USBDeviceInit 013A   __end_of_USER_USB_CALLBACK_EVENT_HANDLER 17B8  
__size_of_USER_USB_CALLBACK_EVENT_HANDLER 0080         ??_USER_USB_CALLBACK_EVENT_HANDLER 00CF  
        ?_USER_USB_CALLBACK_EVENT_HANDLER 00C9           _USER_USB_CALLBACK_EVENT_HANDLER 1738  
         __size_of_APP_LEDUpdateUSBStatus 0080                    ??_USBConfigureEndpoint 0043  
                   ?_USBCtrlTrfOutHandler 0030                    __size_of_BUTTON_Enable 00BC  
                ?_APP_DeviceJoystickTasks 0030                      __CFG_CPUDIV$NOCLKDIV 000000  
                     _USBCtrlTrfRxService 0950                        _USBWakeFromSuspend 1BA8  
                 _USBStdFeatureReqHandler 00A2                       _USBCtrlTrfTxService 1200  
              __size_of_SYS_InterruptHigh 0096                                _WHEEL_Test 1904  
                     ?_USBWakeFromSuspend 0030                                _WHEEL_Type 001E  
                   ??_USBCtrlTrfInHandler 0043                     _USBAlternateInterface 002E  
                     USBEnableEndpoint@ep 00C8                           _endpoint_number 0027  
                    ?_USBCtrlTrfRxService 0030                        __CFG_FOSC$INTOSCIO 000000  
                ?_USBCtrlEPAllowDataStage 0030                      ?_USBCtrlTrfTxService 0030  
            _USBStatusStageTimeoutCounter 0025                      ??_USBWakeFromSuspend 004B  
              USBTransferOnePacket@handle 00C7                                _USB_CD_Ptr 7A67  
